

Microchip MPLAB XC8 Assembler V3.00 build 20241204225717 
                                                                                               Sun Jul 06 15:37:28 2025

Microchip MPLAB XC8 C Compiler v3.00 (Free license) build 20241204225717 Og1 
     1                           	processor	18F46Q84
     2                           	fnconf	rparam,??,?,0
     3                           	pagewidth 120
     4                           	opt	flic
     5                           	psect	idataCOMRAM,global,class=CODE,space=0,delta=1,noexec
     6                           	psect	idataBANK5,global,class=CODE,space=0,delta=1,noexec
     7                           	psect	smallconst,global,reloc=2,class=SMALLCONST,space=0,delta=1,noexec
     8                           	psect	cinit,global,reloc=2,class=CODE,space=0,delta=1
     9                           	psect	bssCOMRAM,global,class=COMRAM,space=1,delta=1,lowdata,noexec
    10                           	psect	dataCOMRAM,global,class=COMRAM,space=1,delta=1,lowdata,noexec
    11                           	psect	bssBANK5,global,class=BANK5,space=1,delta=1,lowdata,noexec
    12                           	psect	dataBANK5,global,class=BANK5,space=1,delta=1,lowdata,noexec
    13                           	psect	cstackCOMRAM,global,class=COMRAM,space=1,delta=1,lowdata,noexec
    14                           	psect	text0,global,reloc=2,class=CODE,space=0,delta=1
    15                           	psect	text1,global,reloc=2,class=CODE,space=0,delta=1
    16                           	psect	text2,global,reloc=2,class=CODE,space=0,delta=1,group=3
    17                           	psect	text3,global,reloc=2,class=CODE,space=0,delta=1,group=3
    18                           	psect	text4,global,reloc=2,class=CODE,space=0,delta=1,group=1
    19                           	psect	text5,global,reloc=2,class=CODE,space=0,delta=1,group=1
    20                           	psect	text6,global,reloc=2,class=CODE,space=0,delta=1,group=3
    21                           	psect	text7,global,reloc=2,class=CODE,space=0,delta=1,group=3
    22                           	psect	text8,global,reloc=2,class=CODE,space=0,delta=1,group=2
    23                           	psect	text9,global,reloc=2,class=CODE,space=0,delta=1,group=2
    24                           	psect	text10,global,reloc=2,class=CODE,space=0,delta=1
    25                           	psect	text11,global,reloc=2,class=CODE,space=0,delta=1
    26                           	psect	text12,global,reloc=2,class=CODE,space=0,delta=1
    27                           	psect	text13,global,reloc=2,class=CODE,space=0,delta=1
    28                           	psect	text14,global,reloc=2,class=CODE,space=0,delta=1
    29                           	psect	text15,global,reloc=2,class=CODE,space=0,delta=1
    30                           	psect	text16,global,reloc=2,class=CODE,space=0,delta=1
    31                           	psect	text17,global,reloc=2,class=CODE,space=0,delta=1,group=2
    32                           	psect	text18,global,reloc=2,class=CODE,space=0,delta=1
    33                           	psect	ivt0x8,global,reloc=2,class=CODE,space=0,delta=1,noexec,keep,optim=
    34                           	psect	intsave_regs,global,class=BIGRAM,space=1,delta=1,noexec
    35                           	psect	rparam,global,class=COMRAM,space=1,delta=1,noexec
    36                           	psect	config,global,abs,ovrld,class=CONFIG,space=4,delta=1,noexec
    37   000000                     
    38                           ; Generated 04/02/2025 GMT
    39                           ; 
    40                           ; Copyright © 2025, Microchip Technology Inc. and its subsidiaries ("Microchip")
    41                           ; All rights reserved.
    42                           ; 
    43                           ; This software is developed by Microchip Technology Inc. and its subsidiaries ("Microch
      +                          ip").
    44                           ; 
    45                           ; Redistribution and use in source and binary forms, with or without modification, are
    46                           ; permitted provided that the following conditions are met:
    47                           ; 
    48                           ;     1. Redistributions of source code must retain the above copyright notice, this lis
      +                          t of
    49                           ;        conditions and the following disclaimer.
    50                           ; 
    51                           ;     2. Redistributions in binary form must reproduce the above copyright notice, this 
      +                          list
    52                           ;        of conditions and the following disclaimer in the documentation and/or other
    53                           ;        materials provided with the distribution. Publication is not required when
    54                           ;        this file is used in an embedded application.
    55                           ; 
    56                           ;     3. Microchip's name may not be used to endorse or promote products derived from th
      +                          is
    57                           ;        software without specific prior written permission.
    58                           ; 
    59                           ; THIS SOFTWARE IS PROVIDED BY MICROCHIP "AS IS" AND ANY EXPRESS OR IMPLIED WARRANTIES,
    60                           ; INCLUDING, BUT NOT LIMITED TO, THE IMPLIED WARRANTIES OF MERCHANTABILITY AND FITNESS F
      +                          OR
    61                           ; PURPOSE ARE DISCLAIMED.  IN NO EVENT SHALL MICROCHIP BE LIABLE FOR ANY DIRECT, INDIREC
      +                          T,
    62                           ; INCIDENTAL, SPECIAL, EXEMPLARY, OR CONSEQUENTIAL DAMAGES (INCLUDING BUT NOT LIMITED TO
    63                           ; PROCUREMENT OF SUBSTITUTE GOODS OR SERVICES; LOSS OF USE, DATA OR PROFITS; OR BUSINESS
    64                           ; INTERRUPTION) HOWSOEVER CAUSED AND ON ANY THEORY OF LIABILITY, WHETHER IN CONTRACT, ST
      +                          RICT
    65                           ; LIABILITY, OR TORT (INCLUDING NEGLIGENCE OR OTHERWISE) ARISING IN ANY WAY OUT OF THE U
      +                          SE OF
    66                           ; THIS SOFTWARE, EVEN IF ADVISED OF THE POSSIBILITY OF SUCH DAMAGE.
    67                           ; 
    68                           ; 
    69                           ; Code-generator required, PIC18F46Q84 Definitions
    70                           ; 
    71                           ; SFR Addresses
    72   0004E0                     bsr             equ	1248
    73   0004E9                     fsr0            equ	1257
    74   0004EA                     fsr0h           equ	1258
    75   0004E9                     fsr0l           equ	1257
    76   0004E1                     fsr1            equ	1249
    77   0004E2                     fsr1h           equ	1250
    78   0004E1                     fsr1l           equ	1249
    79   0004D9                     fsr2            equ	1241
    80   0004DA                     fsr2h           equ	1242
    81   0004D9                     fsr2l           equ	1241
    82   0004EF                     indf0           equ	1263
    83   0004E7                     indf1           equ	1255
    84   0004DF                     indf2           equ	1247
    85   0004D6                     intcon          equ	1238
    86   000041                     nvmcon          equ	65
    87   0004F9                     pcl             equ	1273
    88   0004FA                     pclath          equ	1274
    89   0004FB                     pclatu          equ	1275
    90   0004EB                     plusw0          equ	1259
    91   0004E3                     plusw1          equ	1251
    92   0004DB                     plusw2          equ	1243
    93   0004ED                     postdec0        equ	1261
    94   0004E5                     postdec1        equ	1253
    95   0004DD                     postdec2        equ	1245
    96   0004EE                     postinc0        equ	1262
    97   0004E6                     postinc1        equ	1254
    98   0004DE                     postinc2        equ	1246
    99   0004EC                     preinc0         equ	1260
   100   0004E4                     preinc1         equ	1252
   101   0004DC                     preinc2         equ	1244
   102   0004F3                     prod            equ	1267
   103   0004F4                     prodh           equ	1268
   104   0004F3                     prodl           equ	1267
   105   0004D8                     status          equ	1240
   106   0004F5                     tablat          equ	1269
   107   0004F6                     tblptr          equ	1270
   108   0004F7                     tblptrh         equ	1271
   109   0004F6                     tblptrl         equ	1270
   110   0004F8                     tblptru         equ	1272
   111   0004FD                     tosl            equ	1277
   112   0004E8                     wreg            equ	1256
   113   000038                     BOOTREG         equ	56	;# 
   114   000039                     CLKRCON         equ	57	;# 
   115   00003A                     CLKRCLK         equ	58	;# 
   116   000040                     NVMCON0         equ	64	;# 
   117   000041                     NVMCON1         equ	65	;# 
   118   000042                     NVMLOCK         equ	66	;# 
   119   000043                     NVMADR          equ	67	;# 
   120   000043                     NVMADRL         equ	67	;# 
   121   000044                     NVMADRH         equ	68	;# 
   122   000045                     NVMADRU         equ	69	;# 
   123   000046                     NVMDAT          equ	70	;# 
   124   000046                     NVMDATL         equ	70	;# 
   125   000047                     NVMDATH         equ	71	;# 
   126   000048                     VREGCON         equ	72	;# 
   127   000049                     BORCON          equ	73	;# 
   128   00004A                     HLVDCON0        equ	74	;# 
   129   00004B                     HLVDCON1        equ	75	;# 
   130   00004C                     ZCDCON          equ	76	;# 
   131   000060                     PMD0            equ	96	;# 
   132   000061                     PMD1            equ	97	;# 
   133   000062                     PMD2            equ	98	;# 
   134   000063                     PMD3            equ	99	;# 
   135   000064                     PMD4            equ	100	;# 
   136   000065                     PMD5            equ	101	;# 
   137   000066                     PMD6            equ	102	;# 
   138   000067                     PMD7            equ	103	;# 
   139   000068                     PMD8            equ	104	;# 
   140   00006A                     MD1CON0         equ	106	;# 
   141   00006B                     MD1CON1         equ	107	;# 
   142   00006C                     MD1SRC          equ	108	;# 
   143   00006D                     MD1CARL         equ	109	;# 
   144   00006E                     MD1CARH         equ	110	;# 
   145   00006F                     CMOUT           equ	111	;# 
   146   000070                     CM1CON0         equ	112	;# 
   147   000071                     CM1CON1         equ	113	;# 
   148   000072                     CM1NCH          equ	114	;# 
   149   000073                     CM1PCH          equ	115	;# 
   150   000074                     CM2CON0         equ	116	;# 
   151   000075                     CM2CON1         equ	117	;# 
   152   000076                     CM2NCH          equ	118	;# 
   153   000077                     CM2PCH          equ	119	;# 
   154   000078                     WDTCON0         equ	120	;# 
   155   000079                     WDTCON1         equ	121	;# 
   156   00007A                     WDTPSL          equ	122	;# 
   157   00007B                     WDTPSH          equ	123	;# 
   158   00007C                     WDTTMR          equ	124	;# 
   159   00007D                     DAC1DAT         equ	125	;# 
   160   00007D                     DAC1DATL        equ	125	;# 
   161   00007F                     DAC1CON         equ	127	;# 
   162   000080                     SPI1RXB         equ	128	;# 
   163   000081                     SPI1TXB         equ	129	;# 
   164   000082                     SPI1TCNT        equ	130	;# 
   165   000082                     SPI1TCNTL       equ	130	;# 
   166   000083                     SPI1TCNTH       equ	131	;# 
   167   000084                     SPI1CON0        equ	132	;# 
   168   000085                     SPI1CON1        equ	133	;# 
   169   000086                     SPI1CON2        equ	134	;# 
   170   000087                     SPI1STATUS      equ	135	;# 
   171   000088                     SPI1TWIDTH      equ	136	;# 
   172   000089                     SPI1BAUD        equ	137	;# 
   173   00008A                     SPI1INTF        equ	138	;# 
   174   00008B                     SPI1INTE        equ	139	;# 
   175   00008C                     SPI1CLK         equ	140	;# 
   176   00008D                     SPI2RXB         equ	141	;# 
   177   00008E                     SPI2TXB         equ	142	;# 
   178   00008F                     SPI2TCNT        equ	143	;# 
   179   00008F                     SPI2TCNTL       equ	143	;# 
   180   000090                     SPI2TCNTH       equ	144	;# 
   181   000091                     SPI2CON0        equ	145	;# 
   182   000092                     SPI2CON1        equ	146	;# 
   183   000093                     SPI2CON2        equ	147	;# 
   184   000094                     SPI2STATUS      equ	148	;# 
   185   000095                     SPI2TWIDTH      equ	149	;# 
   186   000096                     SPI2BAUD        equ	150	;# 
   187   000097                     SPI2INTF        equ	151	;# 
   188   000098                     SPI2INTE        equ	152	;# 
   189   000099                     SPI2CLK         equ	153	;# 
   190   0000AC                     ACTCON          equ	172	;# 
   191   0000AD                     OSCCON1         equ	173	;# 
   192   0000AE                     OSCCON2         equ	174	;# 
   193   0000AF                     OSCCON3         equ	175	;# 
   194   0000B0                     OSCTUNE         equ	176	;# 
   195   0000B1                     OSCFRQ          equ	177	;# 
   196   0000B1                     OSCFREQ         equ	177	;# 
   197   0000B2                     OSCSTAT         equ	178	;# 
   198   0000B2                     OSCSTAT1        equ	178	;# 
   199   0000B3                     OSCEN           equ	179	;# 
   200   0000B4                     PRLOCK          equ	180	;# 
   201   0000B5                     SCANPR          equ	181	;# 
   202   0000B6                     DMA1PR          equ	182	;# 
   203   0000B7                     DMA2PR          equ	183	;# 
   204   0000B8                     DMA3PR          equ	184	;# 
   205   0000B9                     DMA4PR          equ	185	;# 
   206   0000BA                     DMA5PR          equ	186	;# 
   207   0000BB                     DMA6PR          equ	187	;# 
   208   0000BC                     DMA7PR          equ	188	;# 
   209   0000BD                     DMA8PR          equ	189	;# 
   210   0000BE                     MAINPR          equ	190	;# 
   211   0000BF                     ISRPR           equ	191	;# 
   212   0000D4                     CLCDATA         equ	212	;# 
   213   0000D5                     CLCSELECT       equ	213	;# 
   214   0000D6                     CLCnCON         equ	214	;# 
   215   0000D7                     CLCnPOL         equ	215	;# 
   216   0000D8                     CLCnSEL0        equ	216	;# 
   217   0000D9                     CLCnSEL1        equ	217	;# 
   218   0000DA                     CLCnSEL2        equ	218	;# 
   219   0000DB                     CLCnSEL3        equ	219	;# 
   220   0000DC                     CLCnGLS0        equ	220	;# 
   221   0000DD                     CLCnGLS1        equ	221	;# 
   222   0000DE                     CLCnGLS2        equ	222	;# 
   223   0000DF                     CLCnGLS3        equ	223	;# 
   224   0000E8                     DMASELECT       equ	232	;# 
   225   0000E9                     DMAnBUF         equ	233	;# 
   226   0000EA                     DMAnDCNT        equ	234	;# 
   227   0000EA                     DMAnDCNTL       equ	234	;# 
   228   0000EB                     DMAnDCNTH       equ	235	;# 
   229   0000EC                     DMAnDPTR        equ	236	;# 
   230   0000EC                     DMAnDPTRL       equ	236	;# 
   231   0000ED                     DMAnDPTRH       equ	237	;# 
   232   0000EE                     DMAnDSZ         equ	238	;# 
   233   0000EE                     DMAnDSZL        equ	238	;# 
   234   0000EF                     DMAnDSZH        equ	239	;# 
   235   0000F0                     DMAnDSA         equ	240	;# 
   236   0000F0                     DMAnDSAL        equ	240	;# 
   237   0000F1                     DMAnDSAH        equ	241	;# 
   238   0000F2                     DMAnSCNT        equ	242	;# 
   239   0000F2                     DMAnSCNTL       equ	242	;# 
   240   0000F3                     DMAnSCNTH       equ	243	;# 
   241   0000F4                     DMAnSPTR        equ	244	;# 
   242   0000F4                     DMAnSPTRL       equ	244	;# 
   243   0000F5                     DMAnSPTRH       equ	245	;# 
   244   0000F6                     DMAnSPTRU       equ	246	;# 
   245   0000F7                     DMAnSSZ         equ	247	;# 
   246   0000F7                     DMAnSSZL        equ	247	;# 
   247   0000F8                     DMAnSSZH        equ	248	;# 
   248   0000F9                     DMAnSSA         equ	249	;# 
   249   0000F9                     DMAnSSAL        equ	249	;# 
   250   0000FA                     DMAnSSAH        equ	250	;# 
   251   0000FB                     DMAnSSAU        equ	251	;# 
   252   0000FC                     DMAnCON0        equ	252	;# 
   253   0000FD                     DMAnCON1        equ	253	;# 
   254   0000FE                     DMAnAIRQ        equ	254	;# 
   255   0000FF                     DMAnSIRQ        equ	255	;# 
   256   000100                     C1CONL          equ	256	;# 
   257   000101                     C1CONH          equ	257	;# 
   258   000102                     C1CONU          equ	258	;# 
   259   000103                     C1CONT          equ	259	;# 
   260   000104                     C1NBTCFGL       equ	260	;# 
   261   000105                     C1NBTCFGH       equ	261	;# 
   262   000106                     C1NBTCFGU       equ	262	;# 
   263   000107                     C1NBTCFGT       equ	263	;# 
   264   000108                     C1DBTCFGL       equ	264	;# 
   265   000109                     C1DBTCFGH       equ	265	;# 
   266   00010A                     C1DBTCFGU       equ	266	;# 
   267   00010B                     C1DBTCFGT       equ	267	;# 
   268   00010C                     C1TDCL          equ	268	;# 
   269   00010D                     C1TDCH          equ	269	;# 
   270   00010E                     C1TDCU          equ	270	;# 
   271   00010F                     C1TDCT          equ	271	;# 
   272   000110                     C1TBC           equ	272	;# 
   273   000110                     C1TBCL          equ	272	;# 
   274   000111                     C1TBCH          equ	273	;# 
   275   000112                     C1TBCU          equ	274	;# 
   276   000113                     C1TBCT          equ	275	;# 
   277   000114                     C1TSCONL        equ	276	;# 
   278   000115                     C1TSCONH        equ	277	;# 
   279   000116                     C1TSCONU        equ	278	;# 
   280   000117                     C1TSCONT        equ	279	;# 
   281   000118                     C1VECL          equ	280	;# 
   282   000119                     C1VECH          equ	281	;# 
   283   00011A                     C1VECU          equ	282	;# 
   284   00011B                     C1VECT          equ	283	;# 
   285   00011C                     C1INTL          equ	284	;# 
   286   00011D                     C1INTH          equ	285	;# 
   287   00011E                     C1INTU          equ	286	;# 
   288   00011F                     C1INTT          equ	287	;# 
   289   000120                     C1RXIF          equ	288	;# 
   290   000120                     C1RXIFL         equ	288	;# 
   291   000121                     C1RXIFH         equ	289	;# 
   292   000122                     C1RXIFU         equ	290	;# 
   293   000123                     C1RXIFT         equ	291	;# 
   294   000124                     C1TXIF          equ	292	;# 
   295   000124                     C1TXIFL         equ	292	;# 
   296   000125                     C1TXIFH         equ	293	;# 
   297   000126                     C1TXIFU         equ	294	;# 
   298   000127                     C1TXIFT         equ	295	;# 
   299   000128                     C1RXOVIF        equ	296	;# 
   300   000128                     C1RXOVIFL       equ	296	;# 
   301   000129                     C1RXOVIFH       equ	297	;# 
   302   00012A                     C1RXOVIFU       equ	298	;# 
   303   00012B                     C1RXOVIFT       equ	299	;# 
   304   00012C                     C1TXATIF        equ	300	;# 
   305   00012C                     C1TXATIFL       equ	300	;# 
   306   00012D                     C1TXATIFH       equ	301	;# 
   307   00012E                     C1TXATIFU       equ	302	;# 
   308   00012F                     C1TXATIFT       equ	303	;# 
   309   000130                     C1TXREQ         equ	304	;# 
   310   000130                     C1TXREQL        equ	304	;# 
   311   000131                     C1TXREQH        equ	305	;# 
   312   000132                     C1TXREQU        equ	306	;# 
   313   000133                     C1TXREQT        equ	307	;# 
   314   000134                     C1TRECL         equ	308	;# 
   315   000135                     C1TRECH         equ	309	;# 
   316   000136                     C1TRECU         equ	310	;# 
   317   000137                     C1TRECT         equ	311	;# 
   318   000138                     C1BDIAG0L       equ	312	;# 
   319   000139                     C1BDIAG0H       equ	313	;# 
   320   00013A                     C1BDIAG0U       equ	314	;# 
   321   00013B                     C1BDIAG0T       equ	315	;# 
   322   00013C                     C1BDIAG1L       equ	316	;# 
   323   00013D                     C1BDIAG1H       equ	317	;# 
   324   00013E                     C1BDIAG1U       equ	318	;# 
   325   00013F                     C1BDIAG1T       equ	319	;# 
   326   000140                     C1TEFCONL       equ	320	;# 
   327   000141                     C1TEFCONH       equ	321	;# 
   328   000142                     C1TEFCONU       equ	322	;# 
   329   000143                     C1TEFCONT       equ	323	;# 
   330   000144                     C1TEFSTAL       equ	324	;# 
   331   000145                     C1TEFSTAH       equ	325	;# 
   332   000146                     C1TEFSTAU       equ	326	;# 
   333   000147                     C1TEFSTAT       equ	327	;# 
   334   000148                     C1TEFUA         equ	328	;# 
   335   000148                     C1TEFUAL        equ	328	;# 
   336   000149                     C1TEFUAH        equ	329	;# 
   337   00014A                     C1TEFUAU        equ	330	;# 
   338   00014B                     C1TEFUAT        equ	331	;# 
   339   00014C                     C1FIFOBA        equ	332	;# 
   340   00014C                     C1FIFOBAL       equ	332	;# 
   341   00014D                     C1FIFOBAH       equ	333	;# 
   342   00014E                     C1FIFOBAU       equ	334	;# 
   343   00014F                     C1FIFOBAT       equ	335	;# 
   344   000150                     C1TXQCONL       equ	336	;# 
   345   000151                     C1TXQCONH       equ	337	;# 
   346   000152                     C1TXQCONU       equ	338	;# 
   347   000153                     C1TXQCONT       equ	339	;# 
   348   000154                     C1TXQSTAL       equ	340	;# 
   349   000155                     C1TXQSTAH       equ	341	;# 
   350   000156                     C1TXQSTAU       equ	342	;# 
   351   000157                     C1TXQSTAT       equ	343	;# 
   352   000158                     C1TXQUA         equ	344	;# 
   353   000158                     C1TXQUAL        equ	344	;# 
   354   000159                     C1TXQUAH        equ	345	;# 
   355   00015A                     C1TXQUAU        equ	346	;# 
   356   00015B                     C1TXQUAT        equ	347	;# 
   357   00015C                     C1FIFOCON1      equ	348	;# 
   358   00015C                     C1FIFOCON1L     equ	348	;# 
   359   00015D                     C1FIFOCON1H     equ	349	;# 
   360   00015E                     C1FIFOCON1U     equ	350	;# 
   361   00015F                     C1FIFOCON1T     equ	351	;# 
   362   000160                     C1FIFOSTA1      equ	352	;# 
   363   000160                     C1FIFOSTA1L     equ	352	;# 
   364   000161                     C1FIFOSTA1H     equ	353	;# 
   365   000162                     C1FIFOSTA1U     equ	354	;# 
   366   000163                     C1FIFOSTA1T     equ	355	;# 
   367   000164                     C1FIFOUA1       equ	356	;# 
   368   000164                     C1FIFOUA1L      equ	356	;# 
   369   000165                     C1FIFOUA1H      equ	357	;# 
   370   000166                     C1FIFOUA1U      equ	358	;# 
   371   000167                     C1FIFOUA1T      equ	359	;# 
   372   000168                     C1FIFOCON2      equ	360	;# 
   373   000168                     C1FIFOCON2L     equ	360	;# 
   374   000169                     C1FIFOCON2H     equ	361	;# 
   375   00016A                     C1FIFOCON2U     equ	362	;# 
   376   00016B                     C1FIFOCON2T     equ	363	;# 
   377   00016C                     C1FIFOSTA2      equ	364	;# 
   378   00016C                     C1FIFOSTA2L     equ	364	;# 
   379   00016D                     C1FIFOSTA2H     equ	365	;# 
   380   00016E                     C1FIFOSTA2U     equ	366	;# 
   381   00016F                     C1FIFOSTA2T     equ	367	;# 
   382   000170                     C1FIFOUA2       equ	368	;# 
   383   000170                     C1FIFOUA2L      equ	368	;# 
   384   000171                     C1FIFOUA2H      equ	369	;# 
   385   000172                     C1FIFOUA2U      equ	370	;# 
   386   000173                     C1FIFOUA2T      equ	371	;# 
   387   000174                     C1FIFOCON3      equ	372	;# 
   388   000174                     C1FIFOCON3L     equ	372	;# 
   389   000175                     C1FIFOCON3H     equ	373	;# 
   390   000176                     C1FIFOCON3U     equ	374	;# 
   391   000177                     C1FIFOCON3T     equ	375	;# 
   392   000178                     C1FIFOSTA3      equ	376	;# 
   393   000178                     C1FIFOSTA3L     equ	376	;# 
   394   000179                     C1FIFOSTA3H     equ	377	;# 
   395   00017A                     C1FIFOSTA3U     equ	378	;# 
   396   00017B                     C1FIFOSTA3T     equ	379	;# 
   397   00017C                     C1FIFOUA3       equ	380	;# 
   398   00017C                     C1FIFOUA3L      equ	380	;# 
   399   00017D                     C1FIFOUA3H      equ	381	;# 
   400   00017E                     C1FIFOUA3U      equ	382	;# 
   401   00017F                     C1FIFOUA3T      equ	383	;# 
   402   000180                     C1FLTCON0L      equ	384	;# 
   403   000181                     C1FLTCON0H      equ	385	;# 
   404   000182                     C1FLTCON0U      equ	386	;# 
   405   000183                     C1FLTCON0T      equ	387	;# 
   406   000184                     C1FLTCON1L      equ	388	;# 
   407   000185                     C1FLTCON1H      equ	389	;# 
   408   000186                     C1FLTCON1U      equ	390	;# 
   409   000187                     C1FLTCON1T      equ	391	;# 
   410   000188                     C1FLTCON2L      equ	392	;# 
   411   000189                     C1FLTCON2H      equ	393	;# 
   412   00018A                     C1FLTCON2U      equ	394	;# 
   413   00018B                     C1FLTCON2T      equ	395	;# 
   414   00018C                     C1FLTOBJ0       equ	396	;# 
   415   00018C                     C1FLTOBJ0L      equ	396	;# 
   416   00018D                     C1FLTOBJ0H      equ	397	;# 
   417   00018E                     C1FLTOBJ0U      equ	398	;# 
   418   00018F                     C1FLTOBJ0T      equ	399	;# 
   419   000190                     C1MASK0         equ	400	;# 
   420   000190                     C1MASK0L        equ	400	;# 
   421   000191                     C1MASK0H        equ	401	;# 
   422   000192                     C1MASK0U        equ	402	;# 
   423   000193                     C1MASK0T        equ	403	;# 
   424   000194                     C1FLTOBJ1       equ	404	;# 
   425   000194                     C1FLTOBJ1L      equ	404	;# 
   426   000195                     C1FLTOBJ1H      equ	405	;# 
   427   000196                     C1FLTOBJ1U      equ	406	;# 
   428   000197                     C1FLTOBJ1T      equ	407	;# 
   429   000198                     C1MASK1         equ	408	;# 
   430   000198                     C1MASK1L        equ	408	;# 
   431   000199                     C1MASK1H        equ	409	;# 
   432   00019A                     C1MASK1U        equ	410	;# 
   433   00019B                     C1MASK1T        equ	411	;# 
   434   00019C                     C1FLTOBJ2       equ	412	;# 
   435   00019C                     C1FLTOBJ2L      equ	412	;# 
   436   00019D                     C1FLTOBJ2H      equ	413	;# 
   437   00019E                     C1FLTOBJ2U      equ	414	;# 
   438   00019F                     C1FLTOBJ2T      equ	415	;# 
   439   0001A0                     C1MASK2         equ	416	;# 
   440   0001A0                     C1MASK2L        equ	416	;# 
   441   0001A1                     C1MASK2H        equ	417	;# 
   442   0001A2                     C1MASK2U        equ	418	;# 
   443   0001A3                     C1MASK2T        equ	419	;# 
   444   0001A4                     C1FLTOBJ3       equ	420	;# 
   445   0001A4                     C1FLTOBJ3L      equ	420	;# 
   446   0001A5                     C1FLTOBJ3H      equ	421	;# 
   447   0001A6                     C1FLTOBJ3U      equ	422	;# 
   448   0001A7                     C1FLTOBJ3T      equ	423	;# 
   449   0001A8                     C1MASK3         equ	424	;# 
   450   0001A8                     C1MASK3L        equ	424	;# 
   451   0001A9                     C1MASK3H        equ	425	;# 
   452   0001AA                     C1MASK3U        equ	426	;# 
   453   0001AB                     C1MASK3T        equ	427	;# 
   454   0001AC                     C1FLTOBJ4       equ	428	;# 
   455   0001AC                     C1FLTOBJ4L      equ	428	;# 
   456   0001AD                     C1FLTOBJ4H      equ	429	;# 
   457   0001AE                     C1FLTOBJ4U      equ	430	;# 
   458   0001AF                     C1FLTOBJ4T      equ	431	;# 
   459   0001B0                     C1MASK4         equ	432	;# 
   460   0001B0                     C1MASK4L        equ	432	;# 
   461   0001B1                     C1MASK4H        equ	433	;# 
   462   0001B2                     C1MASK4U        equ	434	;# 
   463   0001B3                     C1MASK4T        equ	435	;# 
   464   0001B4                     C1FLTOBJ5       equ	436	;# 
   465   0001B4                     C1FLTOBJ5L      equ	436	;# 
   466   0001B5                     C1FLTOBJ5H      equ	437	;# 
   467   0001B6                     C1FLTOBJ5U      equ	438	;# 
   468   0001B7                     C1FLTOBJ5T      equ	439	;# 
   469   0001B8                     C1MASK5         equ	440	;# 
   470   0001B8                     C1MASK5L        equ	440	;# 
   471   0001B9                     C1MASK5H        equ	441	;# 
   472   0001BA                     C1MASK5U        equ	442	;# 
   473   0001BB                     C1MASK5T        equ	443	;# 
   474   0001BC                     C1FLTOBJ6       equ	444	;# 
   475   0001BC                     C1FLTOBJ6L      equ	444	;# 
   476   0001BD                     C1FLTOBJ6H      equ	445	;# 
   477   0001BE                     C1FLTOBJ6U      equ	446	;# 
   478   0001BF                     C1FLTOBJ6T      equ	447	;# 
   479   0001C0                     C1MASK6         equ	448	;# 
   480   0001C0                     C1MASK6L        equ	448	;# 
   481   0001C1                     C1MASK6H        equ	449	;# 
   482   0001C2                     C1MASK6U        equ	450	;# 
   483   0001C3                     C1MASK6T        equ	451	;# 
   484   0001C4                     C1FLTOBJ7       equ	452	;# 
   485   0001C4                     C1FLTOBJ7L      equ	452	;# 
   486   0001C5                     C1FLTOBJ7H      equ	453	;# 
   487   0001C6                     C1FLTOBJ7U      equ	454	;# 
   488   0001C7                     C1FLTOBJ7T      equ	455	;# 
   489   0001C8                     C1MASK7         equ	456	;# 
   490   0001C8                     C1MASK7L        equ	456	;# 
   491   0001C9                     C1MASK7H        equ	457	;# 
   492   0001CA                     C1MASK7U        equ	458	;# 
   493   0001CB                     C1MASK7T        equ	459	;# 
   494   0001CC                     C1FLTOBJ8       equ	460	;# 
   495   0001CC                     C1FLTOBJ8L      equ	460	;# 
   496   0001CD                     C1FLTOBJ8H      equ	461	;# 
   497   0001CE                     C1FLTOBJ8U      equ	462	;# 
   498   0001CF                     C1FLTOBJ8T      equ	463	;# 
   499   0001D0                     C1MASK8         equ	464	;# 
   500   0001D0                     C1MASK8L        equ	464	;# 
   501   0001D1                     C1MASK8H        equ	465	;# 
   502   0001D2                     C1MASK8U        equ	466	;# 
   503   0001D3                     C1MASK8T        equ	467	;# 
   504   0001D4                     C1FLTOBJ9       equ	468	;# 
   505   0001D4                     C1FLTOBJ9L      equ	468	;# 
   506   0001D5                     C1FLTOBJ9H      equ	469	;# 
   507   0001D6                     C1FLTOBJ9U      equ	470	;# 
   508   0001D7                     C1FLTOBJ9T      equ	471	;# 
   509   0001D8                     C1MASK9         equ	472	;# 
   510   0001D8                     C1MASK9L        equ	472	;# 
   511   0001D9                     C1MASK9H        equ	473	;# 
   512   0001DA                     C1MASK9U        equ	474	;# 
   513   0001DB                     C1MASK9T        equ	475	;# 
   514   0001DC                     C1FLTOBJ10      equ	476	;# 
   515   0001DC                     C1FLTOBJ10L     equ	476	;# 
   516   0001DD                     C1FLTOBJ10H     equ	477	;# 
   517   0001DE                     C1FLTOBJ10U     equ	478	;# 
   518   0001DF                     C1FLTOBJ10T     equ	479	;# 
   519   0001E0                     C1MASK10        equ	480	;# 
   520   0001E0                     C1MASK10L       equ	480	;# 
   521   0001E1                     C1MASK10H       equ	481	;# 
   522   0001E2                     C1MASK10U       equ	482	;# 
   523   0001E3                     C1MASK10T       equ	483	;# 
   524   0001E4                     C1FLTOBJ11      equ	484	;# 
   525   0001E4                     C1FLTOBJ11L     equ	484	;# 
   526   0001E5                     C1FLTOBJ11H     equ	485	;# 
   527   0001E6                     C1FLTOBJ11U     equ	486	;# 
   528   0001E7                     C1FLTOBJ11T     equ	487	;# 
   529   0001E8                     C1MASK11        equ	488	;# 
   530   0001E8                     C1MASK11L       equ	488	;# 
   531   0001E9                     C1MASK11H       equ	489	;# 
   532   0001EA                     C1MASK11U       equ	490	;# 
   533   0001EB                     C1MASK11T       equ	491	;# 
   534   000200                     PPSLOCK         equ	512	;# 
   535   000201                     RA0PPS          equ	513	;# 
   536   000202                     RA1PPS          equ	514	;# 
   537   000203                     RA2PPS          equ	515	;# 
   538   000204                     RA3PPS          equ	516	;# 
   539   000205                     RA4PPS          equ	517	;# 
   540   000206                     RA5PPS          equ	518	;# 
   541   000207                     RA6PPS          equ	519	;# 
   542   000208                     RA7PPS          equ	520	;# 
   543   000209                     RB0PPS          equ	521	;# 
   544   00020A                     RB1PPS          equ	522	;# 
   545   00020B                     RB2PPS          equ	523	;# 
   546   00020C                     RB3PPS          equ	524	;# 
   547   00020D                     RB4PPS          equ	525	;# 
   548   00020E                     RB5PPS          equ	526	;# 
   549   00020F                     RB6PPS          equ	527	;# 
   550   000210                     RB7PPS          equ	528	;# 
   551   000211                     RC0PPS          equ	529	;# 
   552   000212                     RC1PPS          equ	530	;# 
   553   000213                     RC2PPS          equ	531	;# 
   554   000214                     RC3PPS          equ	532	;# 
   555   000215                     RC4PPS          equ	533	;# 
   556   000216                     RC5PPS          equ	534	;# 
   557   000217                     RC6PPS          equ	535	;# 
   558   000218                     RC7PPS          equ	536	;# 
   559   000219                     RD0PPS          equ	537	;# 
   560   00021A                     RD1PPS          equ	538	;# 
   561   00021B                     RD2PPS          equ	539	;# 
   562   00021C                     RD3PPS          equ	540	;# 
   563   00021D                     RD4PPS          equ	541	;# 
   564   00021E                     RD5PPS          equ	542	;# 
   565   00021F                     RD6PPS          equ	543	;# 
   566   000220                     RD7PPS          equ	544	;# 
   567   000221                     RE0PPS          equ	545	;# 
   568   000222                     RE1PPS          equ	546	;# 
   569   000223                     RE2PPS          equ	547	;# 
   570   00023D                     CANRXPPS        equ	573	;# 
   571   00023E                     INT0PPS         equ	574	;# 
   572   00023F                     INT1PPS         equ	575	;# 
   573   000240                     INT2PPS         equ	576	;# 
   574   000241                     T0CKIPPS        equ	577	;# 
   575   000242                     T1CKIPPS        equ	578	;# 
   576   000243                     T1GPPS          equ	579	;# 
   577   000244                     T3CKIPPS        equ	580	;# 
   578   000245                     T3GPPS          equ	581	;# 
   579   000246                     T5CKIPPS        equ	582	;# 
   580   000247                     T5GPPS          equ	583	;# 
   581   000248                     T2INPPS         equ	584	;# 
   582   000249                     T4INPPS         equ	585	;# 
   583   00024A                     T6INPPS         equ	586	;# 
   584   00024B                     TUIN0PPS        equ	587	;# 
   585   00024C                     TUIN1PPS        equ	588	;# 
   586   00024F                     CCP1PPS         equ	591	;# 
   587   000250                     CCP2PPS         equ	592	;# 
   588   000251                     CCP3PPS         equ	593	;# 
   589   000253                     PWM1ERSPPS      equ	595	;# 
   590   000254                     PWM2ERSPPS      equ	596	;# 
   591   000255                     PWM3ERSPPS      equ	597	;# 
   592   000256                     PWM4ERSPPS      equ	598	;# 
   593   000257                     PWMIN0PPS       equ	599	;# 
   594   000258                     PWMIN1PPS       equ	600	;# 
   595   000259                     SMT1WINPPS      equ	601	;# 
   596   00025A                     SMT1SIGPPS      equ	602	;# 
   597   00025B                     CWG1PPS         equ	603	;# 
   598   00025B                     CWG1INPPS       equ	603	;# 
   599   00025C                     CWG2PPS         equ	604	;# 
   600   00025C                     CWG2INPPS       equ	604	;# 
   601   00025D                     CWG3PPS         equ	605	;# 
   602   00025D                     CWG3INPPS       equ	605	;# 
   603   00025E                     MD1CARLPPS      equ	606	;# 
   604   00025E                     MDCARLPPS       equ	606	;# 
   605   00025F                     MD1CARHPPS      equ	607	;# 
   606   00025F                     MDCARHPPS       equ	607	;# 
   607   000260                     MD1SRCPPS       equ	608	;# 
   608   000260                     MDSRCPPS        equ	608	;# 
   609   000261                     CLCIN0PPS       equ	609	;# 
   610   000262                     CLCIN1PPS       equ	610	;# 
   611   000263                     CLCIN2PPS       equ	611	;# 
   612   000264                     CLCIN3PPS       equ	612	;# 
   613   000265                     CLCIN4PPS       equ	613	;# 
   614   000266                     CLCIN5PPS       equ	614	;# 
   615   000267                     CLCIN6PPS       equ	615	;# 
   616   000268                     CLCIN7PPS       equ	616	;# 
   617   000269                     ADACTPPS        equ	617	;# 
   618   00026A                     SPI1SCKPPS      equ	618	;# 
   619   00026B                     SPI1SDIPPS      equ	619	;# 
   620   00026C                     SPI1SSPPS       equ	620	;# 
   621   00026D                     SPI2SCKPPS      equ	621	;# 
   622   00026E                     SPI2SDIPPS      equ	622	;# 
   623   00026F                     SPI2SSPPS       equ	623	;# 
   624   000270                     I2C1SDAPPS      equ	624	;# 
   625   000271                     I2C1SCLPPS      equ	625	;# 
   626   000272                     U1RXPPS         equ	626	;# 
   627   000273                     U1CTSPPS        equ	627	;# 
   628   000274                     U2RXPPS         equ	628	;# 
   629   000275                     U2CTSPPS        equ	629	;# 
   630   000276                     U3RXPPS         equ	630	;# 
   631   000277                     U3CTSPPS        equ	631	;# 
   632   000278                     U4RXPPS         equ	632	;# 
   633   000279                     U4CTSPPS        equ	633	;# 
   634   00027A                     U5RXPPS         equ	634	;# 
   635   00027B                     U5CTSPPS        equ	635	;# 
   636   000286                     RC4I2C          equ	646	;# 
   637   000287                     RC3I2C          equ	647	;# 
   638   000288                     RB2I2C          equ	648	;# 
   639   000289                     RB1I2C          equ	649	;# 
   640   00028A                     I2C1RXB         equ	650	;# 
   641   00028B                     I2C1TXB         equ	651	;# 
   642   00028C                     I2C1CNTL        equ	652	;# 
   643   00028D                     I2C1CNTH        equ	653	;# 
   644   00028E                     I2C1ADB0        equ	654	;# 
   645   00028F                     I2C1ADB1        equ	655	;# 
   646   000290                     I2C1ADR0        equ	656	;# 
   647   000291                     I2C1ADR1        equ	657	;# 
   648   000292                     I2C1ADR2        equ	658	;# 
   649   000293                     I2C1ADR3        equ	659	;# 
   650   000294                     I2C1CON0        equ	660	;# 
   651   000295                     I2C1CON1        equ	661	;# 
   652   000296                     I2C1CON2        equ	662	;# 
   653   000297                     I2C1ERR         equ	663	;# 
   654   000298                     I2C1STAT0       equ	664	;# 
   655   000299                     I2C1STAT1       equ	665	;# 
   656   00029A                     I2C1PIR         equ	666	;# 
   657   00029B                     I2C1PIE         equ	667	;# 
   658   00029C                     I2C1BTO         equ	668	;# 
   659   00029D                     I2C1BAUD        equ	669	;# 
   660   00029E                     I2C1CLK         equ	670	;# 
   661   00029F                     I2C1BTOC        equ	671	;# 
   662   0002A1                     U1RXB           equ	673	;# 
   663   0002A1                     U1RXBL          equ	673	;# 
   664   0002A2                     U1RXCHK         equ	674	;# 
   665   0002A3                     U1TXB           equ	675	;# 
   666   0002A3                     U1TXBL          equ	675	;# 
   667   0002A4                     U1TXCHK         equ	676	;# 
   668   0002A5                     U1P1            equ	677	;# 
   669   0002A5                     U1P1L           equ	677	;# 
   670   0002A6                     U1P1H           equ	678	;# 
   671   0002A7                     U1P2            equ	679	;# 
   672   0002A7                     U1P2L           equ	679	;# 
   673   0002A8                     U1P2H           equ	680	;# 
   674   0002A9                     U1P3            equ	681	;# 
   675   0002A9                     U1P3L           equ	681	;# 
   676   0002AA                     U1P3H           equ	682	;# 
   677   0002AB                     U1CON0          equ	683	;# 
   678   0002AC                     U1CON1          equ	684	;# 
   679   0002AD                     U1CON2          equ	685	;# 
   680   0002AE                     U1BRG           equ	686	;# 
   681   0002AE                     U1BRGL          equ	686	;# 
   682   0002AF                     U1BRGH          equ	687	;# 
   683   0002B0                     U1FIFO          equ	688	;# 
   684   0002B1                     U1UIR           equ	689	;# 
   685   0002B2                     U1ERRIR         equ	690	;# 
   686   0002B3                     U1ERRIE         equ	691	;# 
   687   0002B4                     U2RXB           equ	692	;# 
   688   0002B4                     U2RXBL          equ	692	;# 
   689   0002B5                     U2RXCHK         equ	693	;# 
   690   0002B6                     U2TXB           equ	694	;# 
   691   0002B6                     U2TXBL          equ	694	;# 
   692   0002B7                     U2TXCHK         equ	695	;# 
   693   0002B8                     U2P1            equ	696	;# 
   694   0002B8                     U2P1L           equ	696	;# 
   695   0002B9                     U2P1H           equ	697	;# 
   696   0002BA                     U2P2            equ	698	;# 
   697   0002BA                     U2P2L           equ	698	;# 
   698   0002BB                     U2P2H           equ	699	;# 
   699   0002BC                     U2P3            equ	700	;# 
   700   0002BC                     U2P3L           equ	700	;# 
   701   0002BD                     U2P3H           equ	701	;# 
   702   0002BE                     U2CON0          equ	702	;# 
   703   0002BF                     U2CON1          equ	703	;# 
   704   0002C0                     U2CON2          equ	704	;# 
   705   0002C1                     U2BRG           equ	705	;# 
   706   0002C1                     U2BRGL          equ	705	;# 
   707   0002C2                     U2BRGH          equ	706	;# 
   708   0002C3                     U2FIFO          equ	707	;# 
   709   0002C4                     U2UIR           equ	708	;# 
   710   0002C5                     U2ERRIR         equ	709	;# 
   711   0002C6                     U2ERRIE         equ	710	;# 
   712   0002C7                     U3RXB           equ	711	;# 
   713   0002C7                     U3RXBL          equ	711	;# 
   714   0002C9                     U3TXB           equ	713	;# 
   715   0002C9                     U3TXBL          equ	713	;# 
   716   0002CB                     U3P1            equ	715	;# 
   717   0002CB                     U3P1L           equ	715	;# 
   718   0002CD                     U3P2            equ	717	;# 
   719   0002CD                     U3P2L           equ	717	;# 
   720   0002CF                     U3P3            equ	719	;# 
   721   0002CF                     U3P3L           equ	719	;# 
   722   0002D1                     U3CON0          equ	721	;# 
   723   0002D2                     U3CON1          equ	722	;# 
   724   0002D3                     U3CON2          equ	723	;# 
   725   0002D4                     U3BRG           equ	724	;# 
   726   0002D4                     U3BRGL          equ	724	;# 
   727   0002D5                     U3BRGH          equ	725	;# 
   728   0002D6                     U3FIFO          equ	726	;# 
   729   0002D7                     U3UIR           equ	727	;# 
   730   0002D8                     U3ERRIR         equ	728	;# 
   731   0002D9                     U3ERRIE         equ	729	;# 
   732   0002DA                     U4RXB           equ	730	;# 
   733   0002DA                     U4RXBL          equ	730	;# 
   734   0002DC                     U4TXB           equ	732	;# 
   735   0002DC                     U4TXBL          equ	732	;# 
   736   0002DE                     U4P1            equ	734	;# 
   737   0002DE                     U4P1L           equ	734	;# 
   738   0002E0                     U4P2            equ	736	;# 
   739   0002E0                     U4P2L           equ	736	;# 
   740   0002E2                     U4P3            equ	738	;# 
   741   0002E2                     U4P3L           equ	738	;# 
   742   0002E4                     U4CON0          equ	740	;# 
   743   0002E5                     U4CON1          equ	741	;# 
   744   0002E6                     U4CON2          equ	742	;# 
   745   0002E7                     U4BRG           equ	743	;# 
   746   0002E7                     U4BRGL          equ	743	;# 
   747   0002E8                     U4BRGH          equ	744	;# 
   748   0002E9                     U4FIFO          equ	745	;# 
   749   0002EA                     U4UIR           equ	746	;# 
   750   0002EB                     U4ERRIR         equ	747	;# 
   751   0002EC                     U4ERRIE         equ	748	;# 
   752   0002ED                     U5RXB           equ	749	;# 
   753   0002ED                     U5RXBL          equ	749	;# 
   754   0002EF                     U5TXB           equ	751	;# 
   755   0002EF                     U5TXBL          equ	751	;# 
   756   0002F1                     U5P1            equ	753	;# 
   757   0002F1                     U5P1L           equ	753	;# 
   758   0002F3                     U5P2            equ	755	;# 
   759   0002F3                     U5P2L           equ	755	;# 
   760   0002F5                     U5P3            equ	757	;# 
   761   0002F5                     U5P3L           equ	757	;# 
   762   0002F7                     U5CON0          equ	759	;# 
   763   0002F8                     U5CON1          equ	760	;# 
   764   0002F9                     U5CON2          equ	761	;# 
   765   0002FA                     U5BRG           equ	762	;# 
   766   0002FA                     U5BRGL          equ	762	;# 
   767   0002FB                     U5BRGH          equ	763	;# 
   768   0002FC                     U5FIFO          equ	764	;# 
   769   0002FD                     U5UIR           equ	765	;# 
   770   0002FE                     U5ERRIR         equ	766	;# 
   771   0002FF                     U5ERRIE         equ	767	;# 
   772   000300                     SMT1TMR         equ	768	;# 
   773   000300                     SMT1TMRL        equ	768	;# 
   774   000301                     SMT1TMRH        equ	769	;# 
   775   000302                     SMT1TMRU        equ	770	;# 
   776   000303                     SMT1CPR         equ	771	;# 
   777   000303                     SMT1CPRL        equ	771	;# 
   778   000304                     SMT1CPRH        equ	772	;# 
   779   000305                     SMT1CPRU        equ	773	;# 
   780   000306                     SMT1CPW         equ	774	;# 
   781   000306                     SMT1CPWL        equ	774	;# 
   782   000307                     SMT1CPWH        equ	775	;# 
   783   000308                     SMT1CPWU        equ	776	;# 
   784   000309                     SMT1PR          equ	777	;# 
   785   000309                     SMT1PRL         equ	777	;# 
   786   00030A                     SMT1PRH         equ	778	;# 
   787   00030B                     SMT1PRU         equ	779	;# 
   788   00030C                     SMT1CON0        equ	780	;# 
   789   00030D                     SMT1CON1        equ	781	;# 
   790   00030E                     SMT1STAT        equ	782	;# 
   791   00030F                     SMT1CLK         equ	783	;# 
   792   000310                     SMT1SIG         equ	784	;# 
   793   000311                     SMT1WIN         equ	785	;# 
   794   000318                     TMR0L           equ	792	;# 
   795   000318                     TMR0            equ	792	;# 
   796   000319                     TMR0H           equ	793	;# 
   797   000319                     PR0             equ	793	;# 
   798   00031A                     T0CON0          equ	794	;# 
   799   00031B                     T0CON1          equ	795	;# 
   800   00031C                     TMR1            equ	796	;# 
   801   00031C                     TMR1L           equ	796	;# 
   802   00031D                     TMR1H           equ	797	;# 
   803   00031E                     T1CON           equ	798	;# 
   804   00031E                     TMR1CON         equ	798	;# 
   805   00031F                     T1GCON          equ	799	;# 
   806   00031F                     TMR1GCON        equ	799	;# 
   807   000320                     T1GATE          equ	800	;# 
   808   000320                     TMR1GATE        equ	800	;# 
   809   000321                     T1CLK           equ	801	;# 
   810   000321                     TMR1CLK         equ	801	;# 
   811   000321                     PR1             equ	801	;# 
   812   000322                     T2TMR           equ	802	;# 
   813   000322                     TMR2            equ	802	;# 
   814   000323                     T2PR            equ	803	;# 
   815   000323                     PR2             equ	803	;# 
   816   000324                     T2CON           equ	804	;# 
   817   000325                     T2HLT           equ	805	;# 
   818   000326                     T2CLKCON        equ	806	;# 
   819   000326                     T2CLK           equ	806	;# 
   820   000327                     T2RST           equ	807	;# 
   821   000328                     TMR3            equ	808	;# 
   822   000328                     TMR3L           equ	808	;# 
   823   000329                     TMR3H           equ	809	;# 
   824   00032A                     T3CON           equ	810	;# 
   825   00032A                     TMR3CON         equ	810	;# 
   826   00032B                     T3GCON          equ	811	;# 
   827   00032B                     TMR3GCON        equ	811	;# 
   828   00032C                     T3GATE          equ	812	;# 
   829   00032C                     TMR3GATE        equ	812	;# 
   830   00032D                     T3CLK           equ	813	;# 
   831   00032D                     TMR3CLK         equ	813	;# 
   832   00032D                     PR3             equ	813	;# 
   833   00032E                     T4TMR           equ	814	;# 
   834   00032E                     TMR4            equ	814	;# 
   835   00032F                     T4PR            equ	815	;# 
   836   00032F                     PR4             equ	815	;# 
   837   000330                     T4CON           equ	816	;# 
   838   000331                     T4HLT           equ	817	;# 
   839   000332                     T4CLKCON        equ	818	;# 
   840   000332                     T4CLK           equ	818	;# 
   841   000333                     T4RST           equ	819	;# 
   842   000334                     TMR5            equ	820	;# 
   843   000334                     TMR5L           equ	820	;# 
   844   000335                     TMR5H           equ	821	;# 
   845   000336                     T5CON           equ	822	;# 
   846   000336                     TMR5CON         equ	822	;# 
   847   000337                     T5GCON          equ	823	;# 
   848   000337                     TMR5GCON        equ	823	;# 
   849   000338                     T5GATE          equ	824	;# 
   850   000338                     TMR5GATE        equ	824	;# 
   851   000339                     T5CLK           equ	825	;# 
   852   000339                     TMR5CLK         equ	825	;# 
   853   000339                     PR5             equ	825	;# 
   854   00033A                     T6TMR           equ	826	;# 
   855   00033A                     TMR6            equ	826	;# 
   856   00033B                     T6PR            equ	827	;# 
   857   00033B                     PR6             equ	827	;# 
   858   00033C                     T6CON           equ	828	;# 
   859   00033D                     T6HLT           equ	829	;# 
   860   00033E                     T6CLKCON        equ	830	;# 
   861   00033E                     T6CLK           equ	830	;# 
   862   00033F                     T6RST           equ	831	;# 
   863   000340                     CCPR1           equ	832	;# 
   864   000340                     CCPR1L          equ	832	;# 
   865   000341                     CCPR1H          equ	833	;# 
   866   000342                     CCP1CON         equ	834	;# 
   867   000343                     CCP1CAP         equ	835	;# 
   868   000344                     CCPR2           equ	836	;# 
   869   000344                     CCPR2L          equ	836	;# 
   870   000345                     CCPR2H          equ	837	;# 
   871   000346                     CCP2CON         equ	838	;# 
   872   000347                     CCP2CAP         equ	839	;# 
   873   000348                     CCPR3           equ	840	;# 
   874   000348                     CCPR3L          equ	840	;# 
   875   000349                     CCPR3H          equ	841	;# 
   876   00034A                     CCP3CON         equ	842	;# 
   877   00034B                     CCP3CAP         equ	843	;# 
   878   00034C                     CCPTMRS0        equ	844	;# 
   879   00034F                     CRCDATA         equ	847	;# 
   880   00034F                     CRCDATAL        equ	847	;# 
   881   000350                     CRCDATAH        equ	848	;# 
   882   000351                     CRCDATAU        equ	849	;# 
   883   000352                     CRCDATAT        equ	850	;# 
   884   000353                     CRCOUT          equ	851	;# 
   885   000353                     CRCSHFT         equ	851	;# 
   886   000353                     CRCXOR          equ	851	;# 
   887   000353                     CRCOUTL         equ	851	;# 
   888   000353                     CRCSHFTL        equ	851	;# 
   889   000353                     CRCSHIFTL       equ	851	;# 
   890   000353                     CRCXORL         equ	851	;# 
   891   000354                     CRCOUTH         equ	852	;# 
   892   000354                     CRCSHFTH        equ	852	;# 
   893   000354                     CRCSHIFTH       equ	852	;# 
   894   000354                     CRCXORH         equ	852	;# 
   895   000355                     CRCOUTU         equ	853	;# 
   896   000355                     CRCSHFTU        equ	853	;# 
   897   000355                     CRCSHIFTU       equ	853	;# 
   898   000355                     CRCXORU         equ	853	;# 
   899   000356                     CRCOUTT         equ	854	;# 
   900   000356                     CRCSHFTT        equ	854	;# 
   901   000356                     CRCSHIFTT       equ	854	;# 
   902   000356                     CRCXORT         equ	854	;# 
   903   000357                     CRCCON0         equ	855	;# 
   904   000358                     CRCCON1         equ	856	;# 
   905   000359                     CRCCON2         equ	857	;# 
   906   00035A                     SCANLADR        equ	858	;# 
   907   00035A                     SCANLADRL       equ	858	;# 
   908   00035B                     SCANLADRH       equ	859	;# 
   909   00035C                     SCANLADRU       equ	860	;# 
   910   00035D                     SCANHADR        equ	861	;# 
   911   00035D                     SCANHADRL       equ	861	;# 
   912   00035E                     SCANHADRH       equ	862	;# 
   913   00035F                     SCANHADRU       equ	863	;# 
   914   000360                     SCANCON0        equ	864	;# 
   915   000361                     SCANTRIG        equ	865	;# 
   916   000362                     IPR0            equ	866	;# 
   917   000363                     IPR1            equ	867	;# 
   918   000364                     IPR2            equ	868	;# 
   919   000365                     IPR3            equ	869	;# 
   920   000366                     IPR4            equ	870	;# 
   921   000367                     IPR5            equ	871	;# 
   922   000368                     IPR6            equ	872	;# 
   923   000369                     IPR7            equ	873	;# 
   924   00036A                     IPR8            equ	874	;# 
   925   00036B                     IPR9            equ	875	;# 
   926   00036C                     IPR10           equ	876	;# 
   927   00036D                     IPR11           equ	877	;# 
   928   00036E                     IPR12           equ	878	;# 
   929   00036F                     IPR13           equ	879	;# 
   930   000370                     IPR14           equ	880	;# 
   931   000371                     IPR15           equ	881	;# 
   932   000373                     STATUS_CSHAD    equ	883	;# 
   933   000374                     WREG_CSHAD      equ	884	;# 
   934   000375                     BSR_CSHAD       equ	885	;# 
   935   000376                     SHADCON         equ	886	;# 
   936   000377                     STATUS_SHAD     equ	887	;# 
   937   000378                     WREG_SHAD       equ	888	;# 
   938   000379                     BSR_SHAD        equ	889	;# 
   939   00037A                     PCLATH_SHAD     equ	890	;# 
   940   00037B                     PCLATU_SHAD     equ	891	;# 
   941   00037C                     FSR0SH          equ	892	;# 
   942   00037C                     FSR0L_SHAD      equ	892	;# 
   943   00037D                     FSR0H_SHAD      equ	893	;# 
   944   00037E                     FSR1SH          equ	894	;# 
   945   00037E                     FSR1L_SHAD      equ	894	;# 
   946   00037F                     FSR1H_SHAD      equ	895	;# 
   947   000380                     FSR2SH          equ	896	;# 
   948   000380                     FSR2L_SHAD      equ	896	;# 
   949   000381                     FSR2H_SHAD      equ	897	;# 
   950   000382                     PRODSH          equ	898	;# 
   951   000382                     PRODL_SHAD      equ	898	;# 
   952   000383                     PRODH_SHAD      equ	899	;# 
   953   000387                     TU16ACON0       equ	903	;# 
   954   000388                     TU16ACON1       equ	904	;# 
   955   000389                     TU16AHLT        equ	905	;# 
   956   00038A                     TU16APS         equ	906	;# 
   957   00038B                     TU16ATMR        equ	907	;# 
   958   00038B                     TU16ACR         equ	907	;# 
   959   00038B                     TU16ATMRL       equ	907	;# 
   960   00038B                     TU16ACRL        equ	907	;# 
   961   00038C                     TU16ATMRH       equ	908	;# 
   962   00038C                     TU16ACRH        equ	908	;# 
   963   00038D                     TU16APR         equ	909	;# 
   964   00038D                     TU16APRL        equ	909	;# 
   965   00038E                     TU16APRH        equ	910	;# 
   966   00038F                     TU16ACLK        equ	911	;# 
   967   000390                     TU16AERS        equ	912	;# 
   968   000393                     TU16BCON0       equ	915	;# 
   969   000394                     TU16BCON1       equ	916	;# 
   970   000395                     TU16BHLT        equ	917	;# 
   971   000396                     TU16BPS         equ	918	;# 
   972   000397                     TU16BTMR        equ	919	;# 
   973   000397                     TU16BCR         equ	919	;# 
   974   000397                     TU16BTMRL       equ	919	;# 
   975   000397                     TU16BCRL        equ	919	;# 
   976   000398                     TU16BTMRH       equ	920	;# 
   977   000398                     TU16BCRH        equ	920	;# 
   978   000399                     TU16BPR         equ	921	;# 
   979   000399                     TU16BPRL        equ	921	;# 
   980   00039A                     TU16BPRH        equ	922	;# 
   981   00039B                     TU16BCLK        equ	923	;# 
   982   00039C                     TU16BERS        equ	924	;# 
   983   0003BB                     TUCHAIN         equ	955	;# 
   984   0003BC                     CWG1CLK         equ	956	;# 
   985   0003BC                     CWG1CLKCON      equ	956	;# 
   986   0003BD                     CWG1ISM         equ	957	;# 
   987   0003BE                     CWG1DBR         equ	958	;# 
   988   0003BF                     CWG1DBF         equ	959	;# 
   989   0003C0                     CWG1CON0        equ	960	;# 
   990   0003C1                     CWG1CON1        equ	961	;# 
   991   0003C2                     CWG1AS0         equ	962	;# 
   992   0003C3                     CWG1AS1         equ	963	;# 
   993   0003C4                     CWG1STR         equ	964	;# 
   994   0003C5                     CWG2CLK         equ	965	;# 
   995   0003C5                     CWG2CLKCON      equ	965	;# 
   996   0003C6                     CWG2ISM         equ	966	;# 
   997   0003C7                     CWG2DBR         equ	967	;# 
   998   0003C8                     CWG2DBF         equ	968	;# 
   999   0003C9                     CWG2CON0        equ	969	;# 
  1000   0003CA                     CWG2CON1        equ	970	;# 
  1001   0003CB                     CWG2AS0         equ	971	;# 
  1002   0003CC                     CWG2AS1         equ	972	;# 
  1003   0003CD                     CWG2STR         equ	973	;# 
  1004   0003CE                     CWG3CLK         equ	974	;# 
  1005   0003CE                     CWG3CLKCON      equ	974	;# 
  1006   0003CF                     CWG3ISM         equ	975	;# 
  1007   0003D0                     CWG3DBR         equ	976	;# 
  1008   0003D1                     CWG3DBF         equ	977	;# 
  1009   0003D2                     CWG3CON0        equ	978	;# 
  1010   0003D3                     CWG3CON1        equ	979	;# 
  1011   0003D4                     CWG3AS0         equ	980	;# 
  1012   0003D5                     CWG3AS1         equ	981	;# 
  1013   0003D6                     CWG3STR         equ	982	;# 
  1014   0003D7                     FVRCON          equ	983	;# 
  1015   0003D8                     ADCPCON         equ	984	;# 
  1016   0003D8                     ADCP            equ	984	;# 
  1017   0003D9                     ADLTH           equ	985	;# 
  1018   0003D9                     ADLTHL          equ	985	;# 
  1019   0003DA                     ADLTHH          equ	986	;# 
  1020   0003DB                     ADUTH           equ	987	;# 
  1021   0003DB                     ADUTHL          equ	987	;# 
  1022   0003DC                     ADUTHH          equ	988	;# 
  1023   0003DD                     ADERR           equ	989	;# 
  1024   0003DD                     ADERRL          equ	989	;# 
  1025   0003DE                     ADERRH          equ	990	;# 
  1026   0003DF                     ADSTPT          equ	991	;# 
  1027   0003DF                     ADSTPTL         equ	991	;# 
  1028   0003E0                     ADSTPTH         equ	992	;# 
  1029   0003E1                     ADFLTR          equ	993	;# 
  1030   0003E1                     ADFLTRL         equ	993	;# 
  1031   0003E2                     ADFLTRH         equ	994	;# 
  1032   0003E3                     ADACC           equ	995	;# 
  1033   0003E3                     ADACCL          equ	995	;# 
  1034   0003E4                     ADACCH          equ	996	;# 
  1035   0003E5                     ADACCU          equ	997	;# 
  1036   0003E6                     ADCNT           equ	998	;# 
  1037   0003E7                     ADRPT           equ	999	;# 
  1038   0003E8                     ADPREV          equ	1000	;# 
  1039   0003E8                     ADPREVL         equ	1000	;# 
  1040   0003E9                     ADPREVH         equ	1001	;# 
  1041   0003EA                     ADRES           equ	1002	;# 
  1042   0003EA                     ADRESL          equ	1002	;# 
  1043   0003EB                     ADRESH          equ	1003	;# 
  1044   0003EC                     ADPCH           equ	1004	;# 
  1045   0003EE                     ADACQ           equ	1006	;# 
  1046   0003EE                     ADACQL          equ	1006	;# 
  1047   0003EF                     ADACQH          equ	1007	;# 
  1048   0003F0                     ADCAP           equ	1008	;# 
  1049   0003F1                     ADPRE           equ	1009	;# 
  1050   0003F1                     ADPREL          equ	1009	;# 
  1051   0003F2                     ADPREH          equ	1010	;# 
  1052   0003F3                     ADCON0          equ	1011	;# 
  1053   0003F4                     ADCON1          equ	1012	;# 
  1054   0003F5                     ADCON2          equ	1013	;# 
  1055   0003F6                     ADCON3          equ	1014	;# 
  1056   0003F7                     ADSTAT          equ	1015	;# 
  1057   0003F8                     ADREF           equ	1016	;# 
  1058   0003F9                     ADACT           equ	1017	;# 
  1059   0003FA                     ADCLK           equ	1018	;# 
  1060   0003FB                     ADCTX           equ	1019	;# 
  1061   0003FC                     ADCSEL1         equ	1020	;# 
  1062   0003FD                     ADCSEL2         equ	1021	;# 
  1063   0003FE                     ADCSEL3         equ	1022	;# 
  1064   0003FF                     ADCSEL4         equ	1023	;# 
  1065   000400                     ANSELA          equ	1024	;# 
  1066   000401                     WPUA            equ	1025	;# 
  1067   000402                     ODCONA          equ	1026	;# 
  1068   000403                     SLRCONA         equ	1027	;# 
  1069   000404                     INLVLA          equ	1028	;# 
  1070   000405                     IOCAP           equ	1029	;# 
  1071   000406                     IOCAN           equ	1030	;# 
  1072   000407                     IOCAF           equ	1031	;# 
  1073   000408                     ANSELB          equ	1032	;# 
  1074   000409                     WPUB            equ	1033	;# 
  1075   00040A                     ODCONB          equ	1034	;# 
  1076   00040B                     SLRCONB         equ	1035	;# 
  1077   00040C                     INLVLB          equ	1036	;# 
  1078   00040D                     IOCBP           equ	1037	;# 
  1079   00040E                     IOCBN           equ	1038	;# 
  1080   00040F                     IOCBF           equ	1039	;# 
  1081   000410                     ANSELC          equ	1040	;# 
  1082   000411                     WPUC            equ	1041	;# 
  1083   000412                     ODCONC          equ	1042	;# 
  1084   000413                     SLRCONC         equ	1043	;# 
  1085   000414                     INLVLC          equ	1044	;# 
  1086   000415                     IOCCP           equ	1045	;# 
  1087   000416                     IOCCN           equ	1046	;# 
  1088   000417                     IOCCF           equ	1047	;# 
  1089   000418                     ANSELD          equ	1048	;# 
  1090   000419                     WPUD            equ	1049	;# 
  1091   00041A                     ODCOND          equ	1050	;# 
  1092   00041B                     SLRCOND         equ	1051	;# 
  1093   00041C                     INLVLD          equ	1052	;# 
  1094   000420                     ANSELE          equ	1056	;# 
  1095   000421                     WPUE            equ	1057	;# 
  1096   000422                     ODCONE          equ	1058	;# 
  1097   000423                     SLRCONE         equ	1059	;# 
  1098   000424                     INLVLE          equ	1060	;# 
  1099   000425                     IOCEP           equ	1061	;# 
  1100   000426                     IOCEN           equ	1062	;# 
  1101   000427                     IOCEF           equ	1063	;# 
  1102   000440                     NCO1ACC         equ	1088	;# 
  1103   000440                     NCO1ACCL        equ	1088	;# 
  1104   000441                     NCO1ACCH        equ	1089	;# 
  1105   000442                     NCO1ACCU        equ	1090	;# 
  1106   000443                     NCO1INC         equ	1091	;# 
  1107   000443                     NCO1INCL        equ	1091	;# 
  1108   000444                     NCO1INCH        equ	1092	;# 
  1109   000445                     NCO1INCU        equ	1093	;# 
  1110   000446                     NCO1CON         equ	1094	;# 
  1111   000447                     NCO1CLK         equ	1095	;# 
  1112   000448                     NCO2ACC         equ	1096	;# 
  1113   000448                     NCO2ACCL        equ	1096	;# 
  1114   000449                     NCO2ACCH        equ	1097	;# 
  1115   00044A                     NCO2ACCU        equ	1098	;# 
  1116   00044B                     NCO2INC         equ	1099	;# 
  1117   00044B                     NCO2INCL        equ	1099	;# 
  1118   00044C                     NCO2INCH        equ	1100	;# 
  1119   00044D                     NCO2INCU        equ	1101	;# 
  1120   00044E                     NCO2CON         equ	1102	;# 
  1121   00044F                     NCO2CLK         equ	1103	;# 
  1122   000450                     NCO3ACC         equ	1104	;# 
  1123   000450                     NCO3ACCL        equ	1104	;# 
  1124   000451                     NCO3ACCH        equ	1105	;# 
  1125   000452                     NCO3ACCU        equ	1106	;# 
  1126   000453                     NCO3INC         equ	1107	;# 
  1127   000453                     NCO3INCL        equ	1107	;# 
  1128   000454                     NCO3INCH        equ	1108	;# 
  1129   000455                     NCO3INCU        equ	1109	;# 
  1130   000456                     NCO3CON         equ	1110	;# 
  1131   000457                     NCO3CLK         equ	1111	;# 
  1132   000458                     FSCMCON         equ	1112	;# 
  1133   000459                     IVTLOCK         equ	1113	;# 
  1134   00045A                     IVTAD           equ	1114	;# 
  1135   00045A                     IVTADL          equ	1114	;# 
  1136   00045B                     IVTADH          equ	1115	;# 
  1137   00045C                     IVTADU          equ	1116	;# 
  1138   00045D                     IVTBASE         equ	1117	;# 
  1139   00045D                     IVTBASEL        equ	1117	;# 
  1140   00045E                     IVTBASEH        equ	1118	;# 
  1141   00045F                     IVTBASEU        equ	1119	;# 
  1142   000460                     PWM1ERS         equ	1120	;# 
  1143   000461                     PWM1CLK         equ	1121	;# 
  1144   000462                     PWM1LDS         equ	1122	;# 
  1145   000463                     PWM1PR          equ	1123	;# 
  1146   000463                     PWM1PRL         equ	1123	;# 
  1147   000464                     PWM1PRH         equ	1124	;# 
  1148   000465                     PWM1CPRE        equ	1125	;# 
  1149   000466                     PWM1PIPOS       equ	1126	;# 
  1150   000467                     PWM1GIR         equ	1127	;# 
  1151   000468                     PWM1GIE         equ	1128	;# 
  1152   000469                     PWM1CON         equ	1129	;# 
  1153   00046A                     PWM1S1CFG       equ	1130	;# 
  1154   00046B                     PWM1S1P1        equ	1131	;# 
  1155   00046B                     PWM1S1P1L       equ	1131	;# 
  1156   00046C                     PWM1S1P1H       equ	1132	;# 
  1157   00046D                     PWM1S1P2        equ	1133	;# 
  1158   00046D                     PWM1S1P2L       equ	1133	;# 
  1159   00046E                     PWM1S1P2H       equ	1134	;# 
  1160   00046F                     PWM2ERS         equ	1135	;# 
  1161   000470                     PWM2CLK         equ	1136	;# 
  1162   000471                     PWM2LDS         equ	1137	;# 
  1163   000472                     PWM2PR          equ	1138	;# 
  1164   000472                     PWM2PRL         equ	1138	;# 
  1165   000473                     PWM2PRH         equ	1139	;# 
  1166   000474                     PWM2CPRE        equ	1140	;# 
  1167   000475                     PWM2PIPOS       equ	1141	;# 
  1168   000476                     PWM2GIR         equ	1142	;# 
  1169   000477                     PWM2GIE         equ	1143	;# 
  1170   000478                     PWM2CON         equ	1144	;# 
  1171   000479                     PWM2S1CFG       equ	1145	;# 
  1172   00047A                     PWM2S1P1        equ	1146	;# 
  1173   00047A                     PWM2S1P1L       equ	1146	;# 
  1174   00047B                     PWM2S1P1H       equ	1147	;# 
  1175   00047C                     PWM2S1P2        equ	1148	;# 
  1176   00047C                     PWM2S1P2L       equ	1148	;# 
  1177   00047D                     PWM2S1P2H       equ	1149	;# 
  1178   00047E                     PWM3ERS         equ	1150	;# 
  1179   00047F                     PWM3CLK         equ	1151	;# 
  1180   000480                     PWM3LDS         equ	1152	;# 
  1181   000481                     PWM3PR          equ	1153	;# 
  1182   000481                     PWM3PRL         equ	1153	;# 
  1183   000482                     PWM3PRH         equ	1154	;# 
  1184   000483                     PWM3CPRE        equ	1155	;# 
  1185   000484                     PWM3PIPOS       equ	1156	;# 
  1186   000485                     PWM3GIR         equ	1157	;# 
  1187   000486                     PWM3GIE         equ	1158	;# 
  1188   000487                     PWM3CON         equ	1159	;# 
  1189   000488                     PWM3S1CFG       equ	1160	;# 
  1190   000489                     PWM3S1P1        equ	1161	;# 
  1191   000489                     PWM3S1P1L       equ	1161	;# 
  1192   00048A                     PWM3S1P1H       equ	1162	;# 
  1193   00048B                     PWM3S1P2        equ	1163	;# 
  1194   00048B                     PWM3S1P2L       equ	1163	;# 
  1195   00048C                     PWM3S1P2H       equ	1164	;# 
  1196   00048D                     PWM4ERS         equ	1165	;# 
  1197   00048E                     PWM4CLK         equ	1166	;# 
  1198   00048F                     PWM4LDS         equ	1167	;# 
  1199   000490                     PWM4PR          equ	1168	;# 
  1200   000490                     PWM4PRL         equ	1168	;# 
  1201   000491                     PWM4PRH         equ	1169	;# 
  1202   000492                     PWM4CPRE        equ	1170	;# 
  1203   000493                     PWM4PIPOS       equ	1171	;# 
  1204   000494                     PWM4GIR         equ	1172	;# 
  1205   000495                     PWM4GIE         equ	1173	;# 
  1206   000496                     PWM4CON         equ	1174	;# 
  1207   000497                     PWM4S1CFG       equ	1175	;# 
  1208   000498                     PWM4S1P1        equ	1176	;# 
  1209   000498                     PWM4S1P1L       equ	1176	;# 
  1210   000499                     PWM4S1P1H       equ	1177	;# 
  1211   00049A                     PWM4S1P2        equ	1178	;# 
  1212   00049A                     PWM4S1P2L       equ	1178	;# 
  1213   00049B                     PWM4S1P2H       equ	1179	;# 
  1214   00049C                     PWMLOAD         equ	1180	;# 
  1215   00049D                     PWMEN           equ	1181	;# 
  1216   00049E                     PIE0            equ	1182	;# 
  1217   00049F                     PIE1            equ	1183	;# 
  1218   0004A0                     PIE2            equ	1184	;# 
  1219   0004A1                     PIE3            equ	1185	;# 
  1220   0004A2                     PIE4            equ	1186	;# 
  1221   0004A3                     PIE5            equ	1187	;# 
  1222   0004A4                     PIE6            equ	1188	;# 
  1223   0004A5                     PIE7            equ	1189	;# 
  1224   0004A6                     PIE8            equ	1190	;# 
  1225   0004A7                     PIE9            equ	1191	;# 
  1226   0004A8                     PIE10           equ	1192	;# 
  1227   0004A9                     PIE11           equ	1193	;# 
  1228   0004AA                     PIE12           equ	1194	;# 
  1229   0004AB                     PIE13           equ	1195	;# 
  1230   0004AC                     PIE14           equ	1196	;# 
  1231   0004AD                     PIE15           equ	1197	;# 
  1232   0004AE                     PIR0            equ	1198	;# 
  1233   0004AF                     PIR1            equ	1199	;# 
  1234   0004B0                     PIR2            equ	1200	;# 
  1235   0004B1                     PIR3            equ	1201	;# 
  1236   0004B2                     PIR4            equ	1202	;# 
  1237   0004B3                     PIR5            equ	1203	;# 
  1238   0004B4                     PIR6            equ	1204	;# 
  1239   0004B5                     PIR7            equ	1205	;# 
  1240   0004B6                     PIR8            equ	1206	;# 
  1241   0004B7                     PIR9            equ	1207	;# 
  1242   0004B8                     PIR10           equ	1208	;# 
  1243   0004B9                     PIR11           equ	1209	;# 
  1244   0004BA                     PIR12           equ	1210	;# 
  1245   0004BB                     PIR13           equ	1211	;# 
  1246   0004BC                     PIR14           equ	1212	;# 
  1247   0004BD                     PIR15           equ	1213	;# 
  1248   0004BE                     LATA            equ	1214	;# 
  1249   0004BF                     LATB            equ	1215	;# 
  1250   0004C0                     LATC            equ	1216	;# 
  1251   0004C1                     LATD            equ	1217	;# 
  1252   0004C2                     LATE            equ	1218	;# 
  1253   0004C6                     TRISA           equ	1222	;# 
  1254   0004C7                     TRISB           equ	1223	;# 
  1255   0004C8                     TRISC           equ	1224	;# 
  1256   0004C9                     TRISD           equ	1225	;# 
  1257   0004CA                     TRISE           equ	1226	;# 
  1258   0004CE                     PORTA           equ	1230	;# 
  1259   0004CF                     PORTB           equ	1231	;# 
  1260   0004D0                     PORTC           equ	1232	;# 
  1261   0004D1                     PORTD           equ	1233	;# 
  1262   0004D2                     PORTE           equ	1234	;# 
  1263   0004D6                     INTCON0         equ	1238	;# 
  1264   0004D7                     INTCON1         equ	1239	;# 
  1265   0004D8                     STATUS          equ	1240	;# 
  1266   0004D9                     FSR2            equ	1241	;# 
  1267   0004D9                     FSR2L           equ	1241	;# 
  1268   0004DA                     FSR2H           equ	1242	;# 
  1269   0004DB                     PLUSW2          equ	1243	;# 
  1270   0004DC                     PREINC2         equ	1244	;# 
  1271   0004DD                     POSTDEC2        equ	1245	;# 
  1272   0004DE                     POSTINC2        equ	1246	;# 
  1273   0004DF                     INDF2           equ	1247	;# 
  1274   0004E0                     BSR             equ	1248	;# 
  1275   0004E1                     FSR1            equ	1249	;# 
  1276   0004E1                     FSR1L           equ	1249	;# 
  1277   0004E2                     FSR1H           equ	1250	;# 
  1278   0004E3                     PLUSW1          equ	1251	;# 
  1279   0004E4                     PREINC1         equ	1252	;# 
  1280   0004E5                     POSTDEC1        equ	1253	;# 
  1281   0004E6                     POSTINC1        equ	1254	;# 
  1282   0004E7                     INDF1           equ	1255	;# 
  1283   0004E8                     WREG            equ	1256	;# 
  1284   0004E9                     FSR0            equ	1257	;# 
  1285   0004E9                     FSR0L           equ	1257	;# 
  1286   0004EA                     FSR0H           equ	1258	;# 
  1287   0004EB                     PLUSW0          equ	1259	;# 
  1288   0004EC                     PREINC0         equ	1260	;# 
  1289   0004ED                     POSTDEC0        equ	1261	;# 
  1290   0004EE                     POSTINC0        equ	1262	;# 
  1291   0004EF                     INDF0           equ	1263	;# 
  1292   0004F0                     PCON0           equ	1264	;# 
  1293   0004F1                     PCON1           equ	1265	;# 
  1294   0004F2                     CPUDOZE         equ	1266	;# 
  1295   0004F3                     PROD            equ	1267	;# 
  1296   0004F3                     PRODL           equ	1267	;# 
  1297   0004F4                     PRODH           equ	1268	;# 
  1298   0004F5                     TABLAT          equ	1269	;# 
  1299   0004F6                     TBLPTR          equ	1270	;# 
  1300   0004F6                     TBLPTRL         equ	1270	;# 
  1301   0004F7                     TBLPTRH         equ	1271	;# 
  1302   0004F8                     TBLPTRU         equ	1272	;# 
  1303   0004F9                     PCLAT           equ	1273	;# 
  1304   0004F9                     PCL             equ	1273	;# 
  1305   0004FA                     PCLATH          equ	1274	;# 
  1306   0004FB                     PCLATU          equ	1275	;# 
  1307   0004FC                     STKPTR          equ	1276	;# 
  1308   0004FD                     TOS             equ	1277	;# 
  1309   0004FD                     TOSL            equ	1277	;# 
  1310   0004FE                     TOSH            equ	1278	;# 
  1311   0004FF                     TOSU            equ	1279	;# 
  1312                           
  1313                           	psect	idataCOMRAM
  1314   003F7C                     __pidataCOMRAM:
  1315                           	callstack 0
  1316                           
  1317                           ;initializer for _onPulseTime
  1318   003F7C  0064               	dw	100
  1319   003F7E  0000               	dw	0
  1320                           
  1321                           	psect	idataBANK5
  1322   003F60                     __pidataBANK5:
  1323                           	callstack 0
  1324                           
  1325                           ;initializer for keypadScan@F23798
  1326   003F60  31                 	db	49
  1327   003F61  32                 	db	50
  1328   003F62  33                 	db	51
  1329   003F63  41                 	db	65
  1330   003F64  42                 	db	66
  1331   003F65  34                 	db	52
  1332   003F66  35                 	db	53
  1333   003F67  36                 	db	54
  1334   003F68  43                 	db	67
  1335   003F69  44                 	db	68
  1336   003F6A  37                 	db	55
  1337   003F6B  38                 	db	56
  1338   003F6C  39                 	db	57
  1339   003F6D  45                 	db	69
  1340   003F6E  46                 	db	70
  1341   003F6F  2A                 	db	42
  1342   003F70  30                 	db	48
  1343   003F71  23                 	db	35
  1344   003F72  47                 	db	71
  1345   003F73  48                 	db	72
  1346                           
  1347                           ;initializer for _timerDuration
  1348   003F74  03E8               	dw	1000
  1349   003F76  0000               	dw	0
  1350                           
  1351                           ;initializer for _offPulseTime
  1352   003F78  0064               	dw	100
  1353   003F7A  0000               	dw	0
  1354   0000AD                     _OSCCON1        set	173
  1355   000323                     _PR2            set	803
  1356   000324                     _T2CON          set	804
  1357   000324                     _T2CONbits      set	804
  1358   0004CF                     _PORTBbits      set	1231
  1359   0004BF                     _LATBbits       set	1215
  1360   0004C0                     _LATCbits       set	1216
  1361   0004D6                     _INTCON0bits    set	1238
  1362   0004A0                     _PIE2           set	1184
  1363   000400                     _ANSELA         set	1024
  1364   000408                     _ANSELB         set	1032
  1365   0004C6                     _TRISA          set	1222
  1366   0004C7                     _TRISB          set	1223
  1367   0004C9                     _TRISD          set	1225
  1368   0004C8                     _TRISC          set	1224
  1369   0004C1                     _LATDbits       set	1217
  1370   0004B0                     _PIR2           set	1200
  1371                           
  1372                           	psect	smallconst
  1373   002E00                     __psmallconst:
  1374                           	callstack 0
  1375   002E00  00                 	db	0
  1376   002E01                     STR_7:
  1377   002E01  4F                 	db	79	;'O'
  1378   002E02  4E                 	db	78	;'N'
  1379   002E03  3A                 	db	58	;':'
  1380   002E04  25                 	db	37
  1381   002E05  6C                 	db	108	;'l'
  1382   002E06  75                 	db	117	;'u'
  1383   002E07  25                 	db	37
  1384   002E08  73                 	db	115	;'s'
  1385   002E09  20                 	db	32
  1386   002E0A  4F                 	db	79	;'O'
  1387   002E0B  46                 	db	70	;'F'
  1388   002E0C  46                 	db	70	;'F'
  1389   002E0D  3A                 	db	58	;':'
  1390   002E0E  25                 	db	37
  1391   002E0F  6C                 	db	108	;'l'
  1392   002E10  75                 	db	117	;'u'
  1393   002E11  25                 	db	37
  1394   002E12  73                 	db	115	;'s'
  1395   002E13  00                 	db	0
  1396   002E14                     STR_2:
  1397   002E14  6D                 	db	109	;'m'
  1398   002E15  73                 	db	115	;'s'
  1399   002E16  00                 	db	0
  1400   002E17                     STR_3:
  1401   002E17  75                 	db	117	;'u'
  1402   002E18  73                 	db	115	;'s'
  1403   002E19  00                 	db	0
  1404   002E17                     STR_6           equ	STR_3
  1405   002E14                     STR_5           equ	STR_2
  1406   002E12                     STR_1           equ	STR_7+17
  1407   002E12                     STR_4           equ	STR_7+17
  1408   002E1A  00                 	db	0	; dummy byte at the end
  1409   002E00                     __smallconst    set	__psmallconst
  1410   002E00                     __mediumconst   set	__psmallconst
  1411   000002                     __activetblptr  equ	2
  1412                           
  1413                           ; #config settings
  1414                           
  1415                           	psect	cinit
  1416   003CAE                     __pcinit:
  1417                           	callstack 0
  1418   003CAE                     start_initialization:
  1419                           	callstack 0
  1420   003CAE                     __initialization:
  1421                           	callstack 0
  1422                           
  1423                           ; Initialize objects allocated to BANK5 (28 bytes)
  1424                           ; load TBLPTR registers with __pidataBANK5
  1425   003CAE  0E60               	movlw	low __pidataBANK5
  1426   003CB0  6EF6               	movwf	tblptrl,c
  1427   003CB2  0E3F               	movlw	high __pidataBANK5
  1428   003CB4  6EF7               	movwf	tblptrh,c
  1429   003CB6  0E00               	movlw	low (__pidataBANK5 shr (0+16))
  1430   003CB8  6EF8               	movwf	tblptru,c
  1431   003CBA  EE01  F1AC         	lfsr	0,__pdataBANK5
  1432   003CBE  EE10 F01C          	lfsr	1,28
  1433   003CC2                     copy_data0:
  1434   003CC2  0009               	tblrd		*+
  1435   003CC4  C4F5 F4EE          	movff	tablat,postinc0
  1436   003CC8  50E5               	movf	postdec1,w,c
  1437   003CCA  50E1               	movf	fsr1l,w,c
  1438   003CCC  E1FA               	bnz	copy_data0
  1439                           
  1440                           ; Initialize objects allocated to COMRAM (4 bytes)
  1441                           ; load TBLPTR registers with __pidataCOMRAM
  1442   003CCE  0E7C               	movlw	low __pidataCOMRAM
  1443   003CD0  6EF6               	movwf	tblptrl,c
  1444   003CD2  0E3F               	movlw	high __pidataCOMRAM
  1445   003CD4  6EF7               	movwf	tblptrh,c
  1446   003CD6  0E00               	movlw	low (__pidataCOMRAM shr (0+16))
  1447   003CD8  6EF8               	movwf	tblptru,c
  1448   003CDA  EE01  F15C         	lfsr	0,__pdataCOMRAM
  1449   003CDE  EE10 F004          	lfsr	1,4
  1450   003CE2                     copy_data1:
  1451   003CE2  0009               	tblrd		*+
  1452   003CE4  C4F5 F4EE          	movff	tablat,postinc0
  1453   003CE8  50E5               	movf	postdec1,w,c
  1454   003CEA  50E1               	movf	fsr1l,w,c
  1455   003CEC  E1FA               	bnz	copy_data1
  1456                           
  1457                           ; Clear objects allocated to BANK5 (76 bytes)
  1458   003CEE  EE01  F160         	lfsr	0,__pbssBANK5
  1459   003CF2  0E4C               	movlw	76
  1460   003CF4                     clear_0:
  1461   003CF4  6AEE               	clrf	postinc0,c
  1462   003CF6  06E8               	decf	wreg,f,c
  1463   003CF8  E1FD               	bnz	clear_0
  1464                           
  1465                           ; Clear objects allocated to COMRAM (8 bytes)
  1466   003CFA  EE01  F154         	lfsr	0,__pbssCOMRAM
  1467   003CFE  0E08               	movlw	8
  1468   003D00                     clear_1:
  1469   003D00  6AEE               	clrf	postinc0,c
  1470   003D02  06E8               	decf	wreg,f,c
  1471   003D04  E1FD               	bnz	clear_1
  1472                           
  1473                           ;
  1474                           ; Setup IVTBASE
  1475                           ;
  1476   00045D                     IVTBASEL        equ	1117
  1477   00045E                     IVTBASEH        equ	1118
  1478   00045F                     IVTBASEU        equ	1119
  1479   003D06  0104               	movlb	4
  1480   003D08  0E08               	movlw	(ivt0x8_base shr 0)& (0+255)
  1481   003D0A  6F5D               	movwf	93,b
  1482   003D0C  0E00               	movlw	(ivt0x8_base shr (0+8))& (0+255)
  1483   003D0E  6F5E               	movwf	94,b
  1484   003D10  0E00               	movlw	(ivt0x8_base shr (0+16))& (0+255)
  1485   003D12  6F5F               	movwf	95,b
  1486   003D14                     end_of_initialization:
  1487                           	callstack 0
  1488   003D14                     __end_of__initialization:
  1489                           	callstack 0
  1490   003D14  0E00               	movlw	low (__Lmediumconst shr (0+16))
  1491   003D16  6EF8               	movwf	tblptru,c
  1492   003D18  0100               	movlb	0
  1493   003D1A  EFF8  F01E         	goto	_main	;jump to C main() function
  1494                           
  1495                           	psect	bssCOMRAM
  1496   000554                     __pbssCOMRAM:
  1497                           	callstack 0
  1498   000554                     handleKeypress@input_value:
  1499                           	callstack 0
  1500   000554                     	ds	4
  1501   000558                     _flags:
  1502                           	callstack 0
  1503   000558                     	ds	1
  1504   000559                     handleKeypress@mode:
  1505                           	callstack 0
  1506   000559                     	ds	1
  1507   00055A                     isr@state:
  1508                           	callstack 0
  1509   00055A                     	ds	1
  1510   00055B                     _activePulse:
  1511                           	callstack 0
  1512   00055B                     	ds	1
  1513                           
  1514                           	psect	dataCOMRAM
  1515   00055C                     __pdataCOMRAM:
  1516                           	callstack 0
  1517   00055C                     _onPulseTime:
  1518                           	callstack 0
  1519   00055C                     	ds	4
  1520                           
  1521                           	psect	bssBANK5
  1522   000560                     __pbssBANK5:
  1523                           	callstack 0
  1524   000560                     _dbuf:
  1525                           	callstack 0
  1526   000560                     	ds	32
  1527   000580                     isr@counter:
  1528                           	callstack 0
  1529   000580                     	ds	4
  1530   000584                     _countCurrent:
  1531                           	callstack 0
  1532   000584                     	ds	4
  1533   000588                     _width:
  1534                           	callstack 0
  1535   000588                     	ds	2
  1536   00058A                     _prec:
  1537                           	callstack 0
  1538   00058A                     	ds	2
  1539   00058C                     _displayBuffer:
  1540                           	callstack 0
  1541   00058C                     	ds	32
  1542                           
  1543                           	psect	dataBANK5
  1544   0005AC                     __pdataBANK5:
  1545                           	callstack 0
  1546   0005AC                     keypadScan@F23798:
  1547                           	callstack 0
  1548   0005AC                     	ds	20
  1549   0005C0                     _timerDuration:
  1550                           	callstack 0
  1551   0005C0                     	ds	4
  1552   0005C4                     _offPulseTime:
  1553                           	callstack 0
  1554   0005C4                     	ds	4
  1555                           
  1556                           	psect	cstackCOMRAM
  1557   000501                     __pcstackCOMRAM:
  1558                           	callstack 0
  1559   000501                     ?___lmul:
  1560                           	callstack 0
  1561   000501                     ?___lldiv:
  1562                           	callstack 0
  1563   000501                     ?___llmod:
  1564                           	callstack 0
  1565   000501                     fputc@c:
  1566                           	callstack 0
  1567   000501                     strcpy@dest:
  1568                           	callstack 0
  1569   000501                     ___lmul@multiplier:
  1570                           	callstack 0
  1571   000501                     ___lldiv@dividend:
  1572                           	callstack 0
  1573   000501                     ___llmod@dividend:
  1574                           	callstack 0
  1575   000501                     ??_keypadScan:
  1576   000501                     ??_lcdWriteCmd:
  1577   000501                     ??_lcdWriteData:
  1578                           
  1579                           ; 1 bytes @ 0x0
  1580   000501                     	ds	2
  1581   000503                     lcdWriteCmd@cmd:
  1582                           	callstack 0
  1583   000503                     lcdWriteData@data:
  1584                           	callstack 0
  1585   000503                     strcpy@src:
  1586                           	callstack 0
  1587   000503                     fputc@fp:
  1588                           	callstack 0
  1589   000503                     keypadScan@keys:
  1590                           	callstack 0
  1591                           
  1592                           ; 20 bytes @ 0x2
  1593   000503                     	ds	1
  1594   000504                     lcdPrint@str:
  1595                           	callstack 0
  1596   000504                     ??_lcdInit:
  1597   000504                     ??_strcpy:
  1598                           
  1599                           ; 1 bytes @ 0x3
  1600   000504                     	ds	1
  1601   000505                     strcpy@d:
  1602                           	callstack 0
  1603   000505                     ___lmul@multiplicand:
  1604                           	callstack 0
  1605   000505                     ___lldiv@divisor:
  1606                           	callstack 0
  1607   000505                     ___llmod@divisor:
  1608                           	callstack 0
  1609   000505                     ??_fputc:
  1610                           
  1611                           ; 1 bytes @ 0x4
  1612   000505                     	ds	1
  1613   000506                     
  1614                           ; 1 bytes @ 0x5
  1615   000506                     	ds	3
  1616   000509                     ___llmod@counter:
  1617                           	callstack 0
  1618   000509                     ___lmul@product:
  1619                           	callstack 0
  1620   000509                     ___lldiv@quotient:
  1621                           	callstack 0
  1622   000509                     
  1623                           ; 1 bytes @ 0x8
  1624   000509                     	ds	4
  1625   00050D                     ___lldiv@counter:
  1626                           	callstack 0
  1627   00050D                     ??_handleKeypress:
  1628                           
  1629                           ; 1 bytes @ 0xC
  1630   00050D                     	ds	1
  1631   00050E                     vfpfcnvrt@fp:
  1632                           	callstack 0
  1633                           
  1634                           ; 2 bytes @ 0xD
  1635   00050E                     	ds	1
  1636   00050F                     handleKeypress@key:
  1637                           	callstack 0
  1638                           
  1639                           ; 1 bytes @ 0xE
  1640   00050F                     	ds	1
  1641   000510                     vfpfcnvrt@fmt:
  1642                           	callstack 0
  1643                           
  1644                           ; 2 bytes @ 0xF
  1645   000510                     	ds	2
  1646   000512                     vfpfcnvrt@ap:
  1647                           	callstack 0
  1648                           
  1649                           ; 2 bytes @ 0x11
  1650   000512                     	ds	2
  1651   000514                     ??_vfpfcnvrt:
  1652                           
  1653                           ; 1 bytes @ 0x13
  1654   000514                     	ds	3
  1655   000517                     keypadScan@result:
  1656                           	callstack 0
  1657                           
  1658                           ; 1 bytes @ 0x16
  1659   000517                     	ds	1
  1660   000518                     keypadScan@col:
  1661                           	callstack 0
  1662   000518                     vfpfcnvrt@done:
  1663                           	callstack 0
  1664                           
  1665                           ; 1 bytes @ 0x17
  1666   000518                     	ds	1
  1667   000519                     keypadScan@row:
  1668                           	callstack 0
  1669   000519                     vfpfcnvrt@cp_859:
  1670                           	callstack 0
  1671                           
  1672                           ; 2 bytes @ 0x18
  1673   000519                     	ds	2
  1674   00051B                     vfpfcnvrt@convarg:
  1675                           	callstack 0
  1676                           
  1677                           ; 4 bytes @ 0x1A
  1678   00051B                     	ds	4
  1679   00051F                     vfpfcnvrt@cp:
  1680                           	callstack 0
  1681                           
  1682                           ; 1 bytes @ 0x1E
  1683   00051F                     	ds	1
  1684   000520                     vfpfcnvrt@c:
  1685                           	callstack 0
  1686                           
  1687                           ; 1 bytes @ 0x1F
  1688   000520                     	ds	1
  1689   000521                     ?_vfprintf:
  1690                           	callstack 0
  1691   000521                     vfprintf@fp:
  1692                           	callstack 0
  1693                           
  1694                           ; 2 bytes @ 0x20
  1695   000521                     	ds	2
  1696   000523                     vfprintf@fmt:
  1697                           	callstack 0
  1698                           
  1699                           ; 1 bytes @ 0x22
  1700   000523                     	ds	1
  1701   000524                     vfprintf@ap:
  1702                           	callstack 0
  1703                           
  1704                           ; 2 bytes @ 0x23
  1705   000524                     	ds	2
  1706   000526                     vfprintf@cfmt:
  1707                           	callstack 0
  1708   000526                     
  1709                           ; 1 bytes @ 0x25
  1710   000526                     	ds	1
  1711   000527                     ?_sprintf:
  1712                           	callstack 0
  1713   000527                     sprintf@s:
  1714                           	callstack 0
  1715                           
  1716                           ; 2 bytes @ 0x26
  1717   000527                     	ds	2
  1718   000529                     sprintf@fmt:
  1719                           	callstack 0
  1720                           
  1721                           ; 1 bytes @ 0x28
  1722   000529                     	ds	13
  1723   000536                     sprintf@ap:
  1724                           	callstack 0
  1725   000536                     
  1726                           ; 1 bytes @ 0x35
  1727   000536                     	ds	2
  1728   000538                     sprintf@f:
  1729                           	callstack 0
  1730                           
  1731                           ; 11 bytes @ 0x37
  1732   000538                     	ds	11
  1733   000543                     updateDisplay@unit_on:
  1734                           	callstack 0
  1735   000543                     
  1736                           ; 1 bytes @ 0x42
  1737   000543                     	ds	3
  1738   000546                     updateDisplay@unit_off:
  1739                           	callstack 0
  1740                           
  1741                           ; 3 bytes @ 0x45
  1742   000546                     	ds	3
  1743   000549                     updateDisplay@on_time:
  1744                           	callstack 0
  1745                           
  1746                           ; 4 bytes @ 0x48
  1747   000549                     	ds	4
  1748   00054D                     updateDisplay@off_time:
  1749                           	callstack 0
  1750                           
  1751                           ; 4 bytes @ 0x4C
  1752   00054D                     	ds	4
  1753   000551                     ??_main:
  1754                           
  1755                           ; 1 bytes @ 0x50
  1756   000551                     	ds	2
  1757   000553                     main@key:
  1758                           	callstack 0
  1759                           
  1760                           ; 1 bytes @ 0x52
  1761   000553                     	ds	1
  1762                           
  1763 ;;
  1764 ;;Main: autosize = 0, tempsize = 2, incstack = 0, save=0
  1765 ;;
  1766 ;; *************** function _main *****************
  1767 ;; Defined at:
  1768 ;;		line 129 in file "main.c"
  1769 ;; Parameters:    Size  Location     Type
  1770 ;;		None
  1771 ;; Auto vars:     Size  Location     Type
  1772 ;;  key             1   82[COMRAM] unsigned char 
  1773 ;; Return value:  Size  Location     Type
  1774 ;;                  1    wreg      void 
  1775 ;; Registers used:
  1776 ;;		wreg, fsr1l, fsr1h, fsr2l, fsr2h, status,2, status,0, tblptrl, tblptrh, tblptru, prodl, prodh, cstack
  1777 ;; Tracked objects:
  1778 ;;		On entry : 0/0
  1779 ;;		On exit  : 0/0
  1780 ;;		Unchanged: 0/0
  1781 ;; Data sizes:     COMRAM   BANK5   BANK6   BANK7   BANK8   BANK9  BANK10  BANK11  BANK12  BANK13  BANK14  BANK15  BANK1
      +6  BANK17  BANK18  BANK19  BANK20  BANK21  BANK22  BANK23  BANK24  BANK25  BANK26  BANK27  BANK28  BANK29  BANK30  BANK3
      +1  BANK32  BANK33  BANK34  BANK35  BANK36
  1782 ;;      Params:         0       0       0       0       0       0       0       0       0       0       0       0       
      +0       0       0       0       0       0       0       0       0       0       0       0       0       0       0       
      +0       0       0       0       0       0
  1783 ;;      Locals:         1       0       0       0       0       0       0       0       0       0       0       0       
      +0       0       0       0       0       0       0       0       0       0       0       0       0       0       0       
      +0       0       0       0       0       0
  1784 ;;      Temps:          2       0       0       0       0       0       0       0       0       0       0       0       
      +0       0       0       0       0       0       0       0       0       0       0       0       0       0       0       
      +0       0       0       0       0       0
  1785 ;;      Totals:         3       0       0       0       0       0       0       0       0       0       0       0       
      +0       0       0       0       0       0       0       0       0       0       0       0       0       0       0       
      +0       0       0       0       0       0
  1786 ;;Total ram usage:        3 bytes
  1787 ;; Hardware stack levels required when called: 7
  1788 ;; This function calls:
  1789 ;;		_handleKeypress
  1790 ;;		_keypadScan
  1791 ;;		_lcdInit
  1792 ;;		_systemInit
  1793 ;;		_updateDisplay
  1794 ;; This function is called by:
  1795 ;;		Startup code after reset
  1796 ;; This function uses a non-reentrant model
  1797 ;;
  1798                           
  1799                           	psect	text0
  1800   003DF0                     __ptext0:
  1801                           	callstack 0
  1802   003DF0                     _main:
  1803                           	callstack 120
  1804   003DF0                     
  1805                           ;main.c: 130:     systemInit();
  1806   003DF0  EC9C  F01F         	call	_systemInit	;wreg free
  1807                           
  1808                           ;main.c: 131:     lcdInit();
  1809   003DF4  ECC4  F01E         	call	_lcdInit	;wreg free
  1810   003DF8                     
  1811                           ;main.c: 132:     updateDisplay();
  1812   003DF8  ECDC  F018         	call	_updateDisplay	;wreg free
  1813   003DFC                     l1837:
  1814                           
  1815                           ;main.c: 135:         char key = keypadScan();
  1816   003DFC  ECE9  F01A         	call	_keypadScan	;wreg free
  1817   003E00  6E53               	movwf	main@key^(0+1280),c
  1818   003E02                     
  1819                           ;main.c: 136:         if (key) {
  1820   003E02  5053               	movf	main@key^(0+1280),w,c
  1821   003E04  B4D8               	btfsc	status,2,c
  1822   003E06  EF07  F01F         	goto	u1601
  1823   003E0A  EF09  F01F         	goto	u1600
  1824   003E0E                     u1601:
  1825   003E0E  EFFE  F01E         	goto	l1837
  1826   003E12                     u1600:
  1827   003E12                     
  1828                           ;main.c: 137:             handleKeypress(key);
  1829   003E12  5053               	movf	main@key^(0+1280),w,c
  1830   003E14  ECF0  F019         	call	_handleKeypress
  1831   003E18                     
  1832                           ;main.c: 138:             updateDisplay();
  1833   003E18  ECDC  F018         	call	_updateDisplay	;wreg free
  1834   003E1C                     
  1835                           ;main.c: 139:             _delay((unsigned long)((100)*(64000000UL/4000.0)));
  1836   003E1C  0E09               	movlw	9
  1837   003E1E  6E52               	movwf	(??_main+1)^(0+1280),c
  1838   003E20  0E1E               	movlw	30
  1839   003E22  6E51               	movwf	??_main^(0+1280),c
  1840   003E24  0EE4               	movlw	228
  1841   003E26                     u1617:
  1842   003E26  2EE8               	decfsz	wreg,f,c
  1843   003E28  D7FE               	bra	u1617
  1844   003E2A  2E51               	decfsz	??_main^(0+1280),f,c
  1845   003E2C  D7FC               	bra	u1617
  1846   003E2E  2E52               	decfsz	(??_main+1)^(0+1280),f,c
  1847   003E30  D7FA               	bra	u1617
  1848   003E32  D000               	nop2	
  1849   003E34  EFFE  F01E         	goto	l1837
  1850   003E38  EF0D  F000         	goto	start
  1851   003E3C                     __end_of_main:
  1852                           	callstack 0
  1853                           
  1854 ;; *************** function _updateDisplay *****************
  1855 ;; Defined at:
  1856 ;;		line 320 in file "main.c"
  1857 ;; Parameters:    Size  Location     Type
  1858 ;;		None
  1859 ;; Auto vars:     Size  Location     Type
  1860 ;;  off_time        4   76[COMRAM] unsigned long 
  1861 ;;  on_time         4   72[COMRAM] unsigned long 
  1862 ;;  unit_off        3   69[COMRAM] unsigned char [3]
  1863 ;;  unit_on         3   66[COMRAM] unsigned char [3]
  1864 ;; Return value:  Size  Location     Type
  1865 ;;                  1    wreg      void 
  1866 ;; Registers used:
  1867 ;;		wreg, fsr1l, fsr1h, fsr2l, fsr2h, status,2, status,0, tblptrl, tblptrh, tblptru, cstack
  1868 ;; Tracked objects:
  1869 ;;		On entry : 0/0
  1870 ;;		On exit  : 0/0
  1871 ;;		Unchanged: 0/0
  1872 ;; Data sizes:     COMRAM   BANK5   BANK6   BANK7   BANK8   BANK9  BANK10  BANK11  BANK12  BANK13  BANK14  BANK15  BANK1
      +6  BANK17  BANK18  BANK19  BANK20  BANK21  BANK22  BANK23  BANK24  BANK25  BANK26  BANK27  BANK28  BANK29  BANK30  BANK3
      +1  BANK32  BANK33  BANK34  BANK35  BANK36
  1873 ;;      Params:         0       0       0       0       0       0       0       0       0       0       0       0       
      +0       0       0       0       0       0       0       0       0       0       0       0       0       0       0       
      +0       0       0       0       0       0
  1874 ;;      Locals:        14       0       0       0       0       0       0       0       0       0       0       0       
      +0       0       0       0       0       0       0       0       0       0       0       0       0       0       0       
      +0       0       0       0       0       0
  1875 ;;      Temps:          0       0       0       0       0       0       0       0       0       0       0       0       
      +0       0       0       0       0       0       0       0       0       0       0       0       0       0       0       
      +0       0       0       0       0       0
  1876 ;;      Totals:        14       0       0       0       0       0       0       0       0       0       0       0       
      +0       0       0       0       0       0       0       0       0       0       0       0       0       0       0       
      +0       0       0       0       0       0
  1877 ;;Total ram usage:       14 bytes
  1878 ;; Hardware stack levels used: 1
  1879 ;; Hardware stack levels required when called: 6
  1880 ;; This function calls:
  1881 ;;		___lldiv
  1882 ;;		_lcdPrint
  1883 ;;		_lcdWriteCmd
  1884 ;;		_sprintf
  1885 ;;		_strcpy
  1886 ;; This function is called by:
  1887 ;;		_main
  1888 ;; This function uses a non-reentrant model
  1889 ;;
  1890                           
  1891                           	psect	text1
  1892   0031B8                     __ptext1:
  1893                           	callstack 0
  1894   0031B8                     _updateDisplay:
  1895                           	callstack 120
  1896   0031B8                     
  1897                           ;main.c: 321:     char unit_on[3], unit_off[3];;main.c: 322:     unsigned long on_time =
      +                           onPulseTime;
  1898   0031B8  C55C  F549         	movff	_onPulseTime,updateDisplay@on_time
  1899   0031BC  C55D  F54A         	movff	_onPulseTime+1,updateDisplay@on_time+1
  1900   0031C0  C55E  F54B         	movff	_onPulseTime+2,updateDisplay@on_time+2
  1901   0031C4  C55F  F54C         	movff	_onPulseTime+3,updateDisplay@on_time+3
  1902                           
  1903                           ;main.c: 323:     unsigned long off_time = offPulseTime;
  1904   0031C8  C5C4  F54D         	movff	_offPulseTime,updateDisplay@off_time
  1905   0031CC  C5C5  F54E         	movff	_offPulseTime+1,updateDisplay@off_time+1
  1906   0031D0  C5C6  F54F         	movff	_offPulseTime+2,updateDisplay@off_time+2
  1907   0031D4  C5C7  F550         	movff	_offPulseTime+3,updateDisplay@off_time+3
  1908   0031D8                     
  1909                           ;main.c: 326:     if (on_time >= 1000000) {
  1910   0031D8  504C               	movf	(updateDisplay@on_time+3)^(0+1280),w,c
  1911   0031DA  E10D               	bnz	u1130
  1912   0031DC  0E40               	movlw	64
  1913   0031DE  5C49               	subwf	updateDisplay@on_time^(0+1280),w,c
  1914   0031E0  0E42               	movlw	66
  1915   0031E2  584A               	subwfb	(updateDisplay@on_time+1)^(0+1280),w,c
  1916   0031E4  0E0F               	movlw	15
  1917   0031E6  584B               	subwfb	(updateDisplay@on_time+2)^(0+1280),w,c
  1918   0031E8  A0D8               	btfss	status,0,c
  1919   0031EA  EFF9  F018         	goto	u1131
  1920   0031EE  EFFB  F018         	goto	u1130
  1921   0031F2                     u1131:
  1922   0031F2  EF1F  F019         	goto	l1641
  1923   0031F6                     u1130:
  1924   0031F6                     
  1925                           ;main.c: 327:         on_time /= 1000000;
  1926   0031F6  C549  F501         	movff	updateDisplay@on_time,___lldiv@dividend
  1927   0031FA  C54A  F502         	movff	updateDisplay@on_time+1,___lldiv@dividend+1
  1928   0031FE  C54B  F503         	movff	updateDisplay@on_time+2,___lldiv@dividend+2
  1929   003202  C54C  F504         	movff	updateDisplay@on_time+3,___lldiv@dividend+3
  1930   003206  0E40               	movlw	64
  1931   003208  6E05               	movwf	___lldiv@divisor^(0+1280),c
  1932   00320A  0E42               	movlw	66
  1933   00320C  6E06               	movwf	(___lldiv@divisor+1)^(0+1280),c
  1934   00320E  0E0F               	movlw	15
  1935   003210  6E07               	movwf	(___lldiv@divisor+2)^(0+1280),c
  1936   003212  0E00               	movlw	0
  1937   003214  6E08               	movwf	(___lldiv@divisor+3)^(0+1280),c
  1938   003216  ECC1  F01D         	call	___lldiv	;wreg free
  1939   00321A  C501  F549         	movff	?___lldiv,updateDisplay@on_time
  1940   00321E  C502  F54A         	movff	?___lldiv+1,updateDisplay@on_time+1
  1941   003222  C503  F54B         	movff	?___lldiv+2,updateDisplay@on_time+2
  1942   003226  C504  F54C         	movff	?___lldiv+3,updateDisplay@on_time+3
  1943   00322A                     
  1944                           ;main.c: 328:         strcpy(unit_on, "s");
  1945   00322A  0E43               	movlw	low updateDisplay@unit_on
  1946   00322C  6E01               	movwf	strcpy@dest^(0+1280),c
  1947   00322E  0E05               	movlw	high updateDisplay@unit_on
  1948   003230  6E02               	movwf	(strcpy@dest+1)^(0+1280),c
  1949   003232  0E12               	movlw	low (STR_7+17)
  1950   003234  6E03               	movwf	strcpy@src^(0+1280),c
  1951   003236  EC67  F01F         	call	_strcpy	;wreg free
  1952                           
  1953                           ;main.c: 329:     } else if (on_time >= 1000) {
  1954   00323A  EF59  F019         	goto	l1649
  1955   00323E                     l1641:
  1956   00323E  504C               	movf	(updateDisplay@on_time+3)^(0+1280),w,c
  1957   003240  104B               	iorwf	(updateDisplay@on_time+2)^(0+1280),w,c
  1958   003242  E10B               	bnz	u1140
  1959   003244  0EE8               	movlw	232
  1960   003246  5C49               	subwf	updateDisplay@on_time^(0+1280),w,c
  1961   003248  0E03               	movlw	3
  1962   00324A  584A               	subwfb	(updateDisplay@on_time+1)^(0+1280),w,c
  1963   00324C  A0D8               	btfss	status,0,c
  1964   00324E  EF2B  F019         	goto	u1141
  1965   003252  EF2D  F019         	goto	u1140
  1966   003256                     u1141:
  1967   003256  EF51  F019         	goto	l1647
  1968   00325A                     u1140:
  1969   00325A                     
  1970                           ;main.c: 330:         on_time /= 1000;
  1971   00325A  C549  F501         	movff	updateDisplay@on_time,___lldiv@dividend
  1972   00325E  C54A  F502         	movff	updateDisplay@on_time+1,___lldiv@dividend+1
  1973   003262  C54B  F503         	movff	updateDisplay@on_time+2,___lldiv@dividend+2
  1974   003266  C54C  F504         	movff	updateDisplay@on_time+3,___lldiv@dividend+3
  1975   00326A  0EE8               	movlw	232
  1976   00326C  6E05               	movwf	___lldiv@divisor^(0+1280),c
  1977   00326E  0E03               	movlw	3
  1978   003270  6E06               	movwf	(___lldiv@divisor+1)^(0+1280),c
  1979   003272  0E00               	movlw	0
  1980   003274  6E07               	movwf	(___lldiv@divisor+2)^(0+1280),c
  1981   003276  0E00               	movlw	0
  1982   003278  6E08               	movwf	(___lldiv@divisor+3)^(0+1280),c
  1983   00327A  ECC1  F01D         	call	___lldiv	;wreg free
  1984   00327E  C501  F549         	movff	?___lldiv,updateDisplay@on_time
  1985   003282  C502  F54A         	movff	?___lldiv+1,updateDisplay@on_time+1
  1986   003286  C503  F54B         	movff	?___lldiv+2,updateDisplay@on_time+2
  1987   00328A  C504  F54C         	movff	?___lldiv+3,updateDisplay@on_time+3
  1988   00328E                     
  1989                           ;main.c: 331:         strcpy(unit_on, "ms");
  1990   00328E  0E43               	movlw	low updateDisplay@unit_on
  1991   003290  6E01               	movwf	strcpy@dest^(0+1280),c
  1992   003292  0E05               	movlw	high updateDisplay@unit_on
  1993   003294  6E02               	movwf	(strcpy@dest+1)^(0+1280),c
  1994   003296  0E14               	movlw	low STR_2
  1995   003298  6E03               	movwf	strcpy@src^(0+1280),c
  1996   00329A  EC67  F01F         	call	_strcpy	;wreg free
  1997                           
  1998                           ;main.c: 332:     } else {
  1999   00329E  EF59  F019         	goto	l1649
  2000   0032A2                     l1647:
  2001                           
  2002                           ;main.c: 333:         strcpy(unit_on, "us");
  2003   0032A2  0E43               	movlw	low updateDisplay@unit_on
  2004   0032A4  6E01               	movwf	strcpy@dest^(0+1280),c
  2005   0032A6  0E05               	movlw	high updateDisplay@unit_on
  2006   0032A8  6E02               	movwf	(strcpy@dest+1)^(0+1280),c
  2007   0032AA  0E17               	movlw	low STR_3
  2008   0032AC  6E03               	movwf	strcpy@src^(0+1280),c
  2009   0032AE  EC67  F01F         	call	_strcpy	;wreg free
  2010   0032B2                     l1649:
  2011                           
  2012                           ;main.c: 337:     if (off_time >= 1000000) {
  2013   0032B2  5050               	movf	(updateDisplay@off_time+3)^(0+1280),w,c
  2014   0032B4  E10D               	bnz	u1150
  2015   0032B6  0E40               	movlw	64
  2016   0032B8  5C4D               	subwf	updateDisplay@off_time^(0+1280),w,c
  2017   0032BA  0E42               	movlw	66
  2018   0032BC  584E               	subwfb	(updateDisplay@off_time+1)^(0+1280),w,c
  2019   0032BE  0E0F               	movlw	15
  2020   0032C0  584F               	subwfb	(updateDisplay@off_time+2)^(0+1280),w,c
  2021   0032C2  A0D8               	btfss	status,0,c
  2022   0032C4  EF66  F019         	goto	u1151
  2023   0032C8  EF68  F019         	goto	u1150
  2024   0032CC                     u1151:
  2025   0032CC  EF8C  F019         	goto	l1655
  2026   0032D0                     u1150:
  2027   0032D0                     
  2028                           ;main.c: 338:         off_time /= 1000000;
  2029   0032D0  C54D  F501         	movff	updateDisplay@off_time,___lldiv@dividend
  2030   0032D4  C54E  F502         	movff	updateDisplay@off_time+1,___lldiv@dividend+1
  2031   0032D8  C54F  F503         	movff	updateDisplay@off_time+2,___lldiv@dividend+2
  2032   0032DC  C550  F504         	movff	updateDisplay@off_time+3,___lldiv@dividend+3
  2033   0032E0  0E40               	movlw	64
  2034   0032E2  6E05               	movwf	___lldiv@divisor^(0+1280),c
  2035   0032E4  0E42               	movlw	66
  2036   0032E6  6E06               	movwf	(___lldiv@divisor+1)^(0+1280),c
  2037   0032E8  0E0F               	movlw	15
  2038   0032EA  6E07               	movwf	(___lldiv@divisor+2)^(0+1280),c
  2039   0032EC  0E00               	movlw	0
  2040   0032EE  6E08               	movwf	(___lldiv@divisor+3)^(0+1280),c
  2041   0032F0  ECC1  F01D         	call	___lldiv	;wreg free
  2042   0032F4  C501  F54D         	movff	?___lldiv,updateDisplay@off_time
  2043   0032F8  C502  F54E         	movff	?___lldiv+1,updateDisplay@off_time+1
  2044   0032FC  C503  F54F         	movff	?___lldiv+2,updateDisplay@off_time+2
  2045   003300  C504  F550         	movff	?___lldiv+3,updateDisplay@off_time+3
  2046   003304                     
  2047                           ;main.c: 339:         strcpy(unit_off, "s");
  2048   003304  0E46               	movlw	low updateDisplay@unit_off
  2049   003306  6E01               	movwf	strcpy@dest^(0+1280),c
  2050   003308  0E05               	movlw	high updateDisplay@unit_off
  2051   00330A  6E02               	movwf	(strcpy@dest+1)^(0+1280),c
  2052   00330C  0E12               	movlw	low (STR_7+17)
  2053   00330E  6E03               	movwf	strcpy@src^(0+1280),c
  2054   003310  EC67  F01F         	call	_strcpy	;wreg free
  2055                           
  2056                           ;main.c: 340:     } else if (off_time >= 1000) {
  2057   003314  EFC6  F019         	goto	l1663
  2058   003318                     l1655:
  2059   003318  5050               	movf	(updateDisplay@off_time+3)^(0+1280),w,c
  2060   00331A  104F               	iorwf	(updateDisplay@off_time+2)^(0+1280),w,c
  2061   00331C  E10B               	bnz	u1160
  2062   00331E  0EE8               	movlw	232
  2063   003320  5C4D               	subwf	updateDisplay@off_time^(0+1280),w,c
  2064   003322  0E03               	movlw	3
  2065   003324  584E               	subwfb	(updateDisplay@off_time+1)^(0+1280),w,c
  2066   003326  A0D8               	btfss	status,0,c
  2067   003328  EF98  F019         	goto	u1161
  2068   00332C  EF9A  F019         	goto	u1160
  2069   003330                     u1161:
  2070   003330  EFBE  F019         	goto	l1661
  2071   003334                     u1160:
  2072   003334                     
  2073                           ;main.c: 341:         off_time /= 1000;
  2074   003334  C54D  F501         	movff	updateDisplay@off_time,___lldiv@dividend
  2075   003338  C54E  F502         	movff	updateDisplay@off_time+1,___lldiv@dividend+1
  2076   00333C  C54F  F503         	movff	updateDisplay@off_time+2,___lldiv@dividend+2
  2077   003340  C550  F504         	movff	updateDisplay@off_time+3,___lldiv@dividend+3
  2078   003344  0EE8               	movlw	232
  2079   003346  6E05               	movwf	___lldiv@divisor^(0+1280),c
  2080   003348  0E03               	movlw	3
  2081   00334A  6E06               	movwf	(___lldiv@divisor+1)^(0+1280),c
  2082   00334C  0E00               	movlw	0
  2083   00334E  6E07               	movwf	(___lldiv@divisor+2)^(0+1280),c
  2084   003350  0E00               	movlw	0
  2085   003352  6E08               	movwf	(___lldiv@divisor+3)^(0+1280),c
  2086   003354  ECC1  F01D         	call	___lldiv	;wreg free
  2087   003358  C501  F54D         	movff	?___lldiv,updateDisplay@off_time
  2088   00335C  C502  F54E         	movff	?___lldiv+1,updateDisplay@off_time+1
  2089   003360  C503  F54F         	movff	?___lldiv+2,updateDisplay@off_time+2
  2090   003364  C504  F550         	movff	?___lldiv+3,updateDisplay@off_time+3
  2091   003368                     
  2092                           ;main.c: 342:         strcpy(unit_off, "ms");
  2093   003368  0E46               	movlw	low updateDisplay@unit_off
  2094   00336A  6E01               	movwf	strcpy@dest^(0+1280),c
  2095   00336C  0E05               	movlw	high updateDisplay@unit_off
  2096   00336E  6E02               	movwf	(strcpy@dest+1)^(0+1280),c
  2097   003370  0E14               	movlw	low STR_2
  2098   003372  6E03               	movwf	strcpy@src^(0+1280),c
  2099   003374  EC67  F01F         	call	_strcpy	;wreg free
  2100                           
  2101                           ;main.c: 343:     } else {
  2102   003378  EFC6  F019         	goto	l1663
  2103   00337C                     l1661:
  2104                           
  2105                           ;main.c: 344:         strcpy(unit_off, "us");
  2106   00337C  0E46               	movlw	low updateDisplay@unit_off
  2107   00337E  6E01               	movwf	strcpy@dest^(0+1280),c
  2108   003380  0E05               	movlw	high updateDisplay@unit_off
  2109   003382  6E02               	movwf	(strcpy@dest+1)^(0+1280),c
  2110   003384  0E17               	movlw	low STR_3
  2111   003386  6E03               	movwf	strcpy@src^(0+1280),c
  2112   003388  EC67  F01F         	call	_strcpy	;wreg free
  2113   00338C                     l1663:
  2114                           
  2115                           ;main.c: 348:     sprintf(displayBuffer, "ON:%lu%s OFF:%lu%s",
  2116   00338C  0E8C               	movlw	low _displayBuffer
  2117   00338E  6E27               	movwf	sprintf@s^(0+1280),c
  2118   003390  0E05               	movlw	high _displayBuffer
  2119   003392  6E28               	movwf	(sprintf@s+1)^(0+1280),c
  2120   003394  0E01               	movlw	low STR_7
  2121   003396  6E29               	movwf	sprintf@fmt^(0+1280),c
  2122   003398  C549  F52A         	movff	updateDisplay@on_time,?_sprintf+3
  2123   00339C  C54A  F52B         	movff	updateDisplay@on_time+1,?_sprintf+4
  2124   0033A0  C54B  F52C         	movff	updateDisplay@on_time+2,?_sprintf+5
  2125   0033A4  C54C  F52D         	movff	updateDisplay@on_time+3,?_sprintf+6
  2126   0033A8  0E43               	movlw	low updateDisplay@unit_on
  2127   0033AA  6E2E               	movwf	(?_sprintf+7)^(0+1280),c
  2128   0033AC  0E05               	movlw	high updateDisplay@unit_on
  2129   0033AE  6E2F               	movwf	(?_sprintf+8)^(0+1280),c
  2130   0033B0  C54D  F530         	movff	updateDisplay@off_time,?_sprintf+9
  2131   0033B4  C54E  F531         	movff	updateDisplay@off_time+1,?_sprintf+10
  2132   0033B8  C54F  F532         	movff	updateDisplay@off_time+2,?_sprintf+11
  2133   0033BC  C550  F533         	movff	updateDisplay@off_time+3,?_sprintf+12
  2134   0033C0  0E46               	movlw	low updateDisplay@unit_off
  2135   0033C2  6E34               	movwf	(?_sprintf+13)^(0+1280),c
  2136   0033C4  0E05               	movlw	high updateDisplay@unit_off
  2137   0033C6  6E35               	movwf	(?_sprintf+14)^(0+1280),c
  2138   0033C8  EC43  F01F         	call	_sprintf	;wreg free
  2139   0033CC                     
  2140                           ;main.c: 352:     lcdWriteCmd(0x01);
  2141   0033CC  0E01               	movlw	1
  2142   0033CE  EC57  F01C         	call	_lcdWriteCmd
  2143   0033D2                     
  2144                           ;main.c: 353:     lcdPrint(displayBuffer);
  2145   0033D2  0E8C               	movlw	low _displayBuffer
  2146   0033D4  6E04               	movwf	lcdPrint@str^(0+1280),c
  2147   0033D6  0E05               	movlw	high _displayBuffer
  2148   0033D8  6E05               	movwf	(lcdPrint@str+1)^(0+1280),c
  2149   0033DA  EC84  F01F         	call	_lcdPrint	;wreg free
  2150   0033DE  0012               	return		;funcret
  2151   0033E0                     __end_of_updateDisplay:
  2152                           	callstack 0
  2153                           
  2154 ;; *************** function _strcpy *****************
  2155 ;; Defined at:
  2156 ;;		line 3 in file "C:\Program Files\Microchip\xc8\v3.00\pic\sources\c99\common\strcpy.c"
  2157 ;; Parameters:    Size  Location     Type
  2158 ;;  dest            2    0[COMRAM] PTR unsigned char 
  2159 ;;		 -> updateDisplay@unit_off(3), updateDisplay@unit_on(3), 
  2160 ;;  src             1    2[COMRAM] PTR const unsigned char 
  2161 ;;		 -> STR_6(3), STR_5(3), STR_4(2), STR_3(3), 
  2162 ;;		 -> STR_2(3), STR_1(2), 
  2163 ;; Auto vars:     Size  Location     Type
  2164 ;;  d               2    4[COMRAM] PTR unsigned char 
  2165 ;;		 -> updateDisplay@unit_off(3), updateDisplay@unit_on(3), 
  2166 ;; Return value:  Size  Location     Type
  2167 ;;                  2    0[COMRAM] PTR unsigned char 
  2168 ;; Registers used:
  2169 ;;		wreg, fsr2l, fsr2h, status,2, status,0, tblptrl, tblptrh, tblptru
  2170 ;; Tracked objects:
  2171 ;;		On entry : 0/0
  2172 ;;		On exit  : 0/0
  2173 ;;		Unchanged: 0/0
  2174 ;; Data sizes:     COMRAM   BANK5   BANK6   BANK7   BANK8   BANK9  BANK10  BANK11  BANK12  BANK13  BANK14  BANK15  BANK1
      +6  BANK17  BANK18  BANK19  BANK20  BANK21  BANK22  BANK23  BANK24  BANK25  BANK26  BANK27  BANK28  BANK29  BANK30  BANK3
      +1  BANK32  BANK33  BANK34  BANK35  BANK36
  2175 ;;      Params:         3       0       0       0       0       0       0       0       0       0       0       0       
      +0       0       0       0       0       0       0       0       0       0       0       0       0       0       0       
      +0       0       0       0       0       0
  2176 ;;      Locals:         2       0       0       0       0       0       0       0       0       0       0       0       
      +0       0       0       0       0       0       0       0       0       0       0       0       0       0       0       
      +0       0       0       0       0       0
  2177 ;;      Temps:          1       0       0       0       0       0       0       0       0       0       0       0       
      +0       0       0       0       0       0       0       0       0       0       0       0       0       0       0       
      +0       0       0       0       0       0
  2178 ;;      Totals:         6       0       0       0       0       0       0       0       0       0       0       0       
      +0       0       0       0       0       0       0       0       0       0       0       0       0       0       0       
      +0       0       0       0       0       0
  2179 ;;Total ram usage:        6 bytes
  2180 ;; Hardware stack levels used: 1
  2181 ;; Hardware stack levels required when called: 1
  2182 ;; This function calls:
  2183 ;;		Nothing
  2184 ;; This function is called by:
  2185 ;;		_updateDisplay
  2186 ;; This function uses a non-reentrant model
  2187 ;;
  2188                           
  2189                           	psect	text2
  2190   003ECE                     __ptext2:
  2191                           	callstack 0
  2192   003ECE                     _strcpy:
  2193                           	callstack 124
  2194   003ECE  C501  F505         	movff	strcpy@dest,strcpy@d
  2195   003ED2  C502  F506         	movff	strcpy@dest+1,strcpy@d+1
  2196   003ED6                     l1589:
  2197   003ED6  2A03               	incf	strcpy@src^(0+1280),f,c
  2198   003ED8  0403               	decf	strcpy@src^(0+1280),w,c
  2199   003EDA  6E04               	movwf	??_strcpy^(0+1280),c
  2200   003EDC  C504  F4F6         	movff	??_strcpy,tblptrl
  2201   003EE0                     	if	1	;There is more than 1 active tblptr byte
  2202   003EE0  0E2E               	movlw	high __smallconst
  2203   003EE2  6EF7               	movwf	tblptrh,c
  2204   003EE4                     	endif
  2205   003EE4                     	if	0	;tblptru may be non-zero
  2206   003EE4                     	endif
  2207   003EE4                     	if	0	;tblptru may be non-zero
  2208   003EE4                     	endif
  2209   003EE4  C505  F4D9         	movff	strcpy@d,fsr2l
  2210   003EE8  C506  F4DA         	movff	strcpy@d+1,fsr2h
  2211   003EEC  4A05               	infsnz	strcpy@d^(0+1280),f,c
  2212   003EEE  2A06               	incf	(strcpy@d+1)^(0+1280),f,c
  2213   003EF0  0008               	tblrd		*
  2214   003EF2  C4F5 F4DF          	movff	tablat,indf2
  2215   003EF6  50DF               	movf	indf2,w,c
  2216   003EF8  A4D8               	btfss	status,2,c
  2217   003EFA  EF81  F01F         	goto	u1101
  2218   003EFE  EF83  F01F         	goto	u1100
  2219   003F02                     u1101:
  2220   003F02  EF6B  F01F         	goto	l1589
  2221   003F06                     u1100:
  2222   003F06  0012               	return		;funcret
  2223   003F08                     __end_of_strcpy:
  2224                           	callstack 0
  2225                           
  2226 ;; *************** function _sprintf *****************
  2227 ;; Defined at:
  2228 ;;		line 9 in file "C:\Program Files\Microchip\xc8\v3.00\pic\sources\c99\common\nf_sprintf.c"
  2229 ;; Parameters:    Size  Location     Type
  2230 ;;  s               2   38[COMRAM] PTR unsigned char 
  2231 ;;		 -> displayBuffer(32), 
  2232 ;;  fmt             1   40[COMRAM] PTR const unsigned char 
  2233 ;;		 -> STR_7(19), 
  2234 ;; Auto vars:     Size  Location     Type
  2235 ;;  f              11   55[COMRAM] struct _IO_FILE
  2236 ;;  ap              2   53[COMRAM] PTR void [1]
  2237 ;;		 -> ?_sprintf(2), 
  2238 ;;  ret             2    0        int 
  2239 ;; Return value:  Size  Location     Type
  2240 ;;                  2   38[COMRAM] int 
  2241 ;; Registers used:
  2242 ;;		wreg, fsr1l, fsr1h, fsr2l, fsr2h, status,2, status,0, tblptrl, tblptrh, tblptru, cstack
  2243 ;; Tracked objects:
  2244 ;;		On entry : 0/0
  2245 ;;		On exit  : 0/0
  2246 ;;		Unchanged: 0/0
  2247 ;; Data sizes:     COMRAM   BANK5   BANK6   BANK7   BANK8   BANK9  BANK10  BANK11  BANK12  BANK13  BANK14  BANK15  BANK1
      +6  BANK17  BANK18  BANK19  BANK20  BANK21  BANK22  BANK23  BANK24  BANK25  BANK26  BANK27  BANK28  BANK29  BANK30  BANK3
      +1  BANK32  BANK33  BANK34  BANK35  BANK36
  2248 ;;      Params:        15       0       0       0       0       0       0       0       0       0       0       0       
      +0       0       0       0       0       0       0       0       0       0       0       0       0       0       0       
      +0       0       0       0       0       0
  2249 ;;      Locals:        13       0       0       0       0       0       0       0       0       0       0       0       
      +0       0       0       0       0       0       0       0       0       0       0       0       0       0       0       
      +0       0       0       0       0       0
  2250 ;;      Temps:          0       0       0       0       0       0       0       0       0       0       0       0       
      +0       0       0       0       0       0       0       0       0       0       0       0       0       0       0       
      +0       0       0       0       0       0
  2251 ;;      Totals:        28       0       0       0       0       0       0       0       0       0       0       0       
      +0       0       0       0       0       0       0       0       0       0       0       0       0       0       0       
      +0       0       0       0       0       0
  2252 ;;Total ram usage:       28 bytes
  2253 ;; Hardware stack levels used: 1
  2254 ;; Hardware stack levels required when called: 5
  2255 ;; This function calls:
  2256 ;;		_vfprintf
  2257 ;; This function is called by:
  2258 ;;		_updateDisplay
  2259 ;; This function uses a non-reentrant model
  2260 ;;
  2261                           
  2262                           	psect	text3
  2263   003E86                     __ptext3:
  2264                           	callstack 0
  2265   003E86                     _sprintf:
  2266                           	callstack 120
  2267   003E86  0E2A               	movlw	low (?_sprintf+3)
  2268   003E88  6E36               	movwf	sprintf@ap^(0+1280),c
  2269   003E8A  0E05               	movlw	high (?_sprintf+3)
  2270   003E8C  6E37               	movwf	(sprintf@ap+1)^(0+1280),c
  2271   003E8E  C527  F538         	movff	sprintf@s,sprintf@f
  2272   003E92  C528  F539         	movff	sprintf@s+1,sprintf@f+1
  2273   003E96  0E00               	movlw	0
  2274   003E98  6E3B               	movwf	(sprintf@f+3)^(0+1280),c
  2275   003E9A  0E00               	movlw	0
  2276   003E9C  6E3A               	movwf	(sprintf@f+2)^(0+1280),c
  2277   003E9E  0E00               	movlw	0
  2278   003EA0  6E42               	movwf	(sprintf@f+10)^(0+1280),c
  2279   003EA2  0E00               	movlw	0
  2280   003EA4  6E41               	movwf	(sprintf@f+9)^(0+1280),c
  2281   003EA6  0E38               	movlw	low sprintf@f
  2282   003EA8  6E21               	movwf	vfprintf@fp^(0+1280),c
  2283   003EAA  0E05               	movlw	high sprintf@f
  2284   003EAC  6E22               	movwf	(vfprintf@fp+1)^(0+1280),c
  2285   003EAE  C529  F523         	movff	sprintf@fmt,vfprintf@fmt
  2286   003EB2  0E36               	movlw	low sprintf@ap
  2287   003EB4  6E24               	movwf	vfprintf@ap^(0+1280),c
  2288   003EB6  0E05               	movlw	high sprintf@ap
  2289   003EB8  6E25               	movwf	(vfprintf@ap+1)^(0+1280),c
  2290   003EBA  EC1E  F01F         	call	_vfprintf	;wreg free
  2291   003EBE  503A               	movf	(sprintf@f+2)^(0+1280),w,c
  2292   003EC0  2427               	addwf	sprintf@s^(0+1280),w,c
  2293   003EC2  6ED9               	movwf	fsr2l,c
  2294   003EC4  503B               	movf	(sprintf@f+3)^(0+1280),w,c
  2295   003EC6  2028               	addwfc	(sprintf@s+1)^(0+1280),w,c
  2296   003EC8  6EDA               	movwf	fsr2h,c
  2297   003ECA  6ADF               	clrf	indf2,c
  2298   003ECC  0012               	return		;funcret
  2299   003ECE                     __end_of_sprintf:
  2300                           	callstack 0
  2301                           
  2302 ;; *************** function _vfprintf *****************
  2303 ;; Defined at:
  2304 ;;		line 1817 in file "C:\Program Files\Microchip\xc8\v3.00\pic\sources\c99\common\doprnt.c"
  2305 ;; Parameters:    Size  Location     Type
  2306 ;;  fp              2   32[COMRAM] PTR struct _IO_FILE
  2307 ;;		 -> sprintf@f(11), 
  2308 ;;  fmt             1   34[COMRAM] PTR const unsigned char 
  2309 ;;		 -> STR_7(19), 
  2310 ;;  ap              2   35[COMRAM] PTR PTR void 
  2311 ;;		 -> sprintf@ap(2), 
  2312 ;; Auto vars:     Size  Location     Type
  2313 ;;  cfmt            1   37[COMRAM] PTR unsigned char 
  2314 ;;		 -> STR_7(19), 
  2315 ;; Return value:  Size  Location     Type
  2316 ;;                  2   32[COMRAM] int 
  2317 ;; Registers used:
  2318 ;;		wreg, fsr1l, fsr1h, fsr2l, fsr2h, status,2, status,0, tblptrl, tblptrh, tblptru, cstack
  2319 ;; Tracked objects:
  2320 ;;		On entry : 0/0
  2321 ;;		On exit  : 0/0
  2322 ;;		Unchanged: 0/0
  2323 ;; Data sizes:     COMRAM   BANK5   BANK6   BANK7   BANK8   BANK9  BANK10  BANK11  BANK12  BANK13  BANK14  BANK15  BANK1
      +6  BANK17  BANK18  BANK19  BANK20  BANK21  BANK22  BANK23  BANK24  BANK25  BANK26  BANK27  BANK28  BANK29  BANK30  BANK3
      +1  BANK32  BANK33  BANK34  BANK35  BANK36
  2324 ;;      Params:         5       0       0       0       0       0       0       0       0       0       0       0       
      +0       0       0       0       0       0       0       0       0       0       0       0       0       0       0       
      +0       0       0       0       0       0
  2325 ;;      Locals:         1       0       0       0       0       0       0       0       0       0       0       0       
      +0       0       0       0       0       0       0       0       0       0       0       0       0       0       0       
      +0       0       0       0       0       0
  2326 ;;      Temps:          0       0       0       0       0       0       0       0       0       0       0       0       
      +0       0       0       0       0       0       0       0       0       0       0       0       0       0       0       
      +0       0       0       0       0       0
  2327 ;;      Totals:         6       0       0       0       0       0       0       0       0       0       0       0       
      +0       0       0       0       0       0       0       0       0       0       0       0       0       0       0       
      +0       0       0       0       0       0
  2328 ;;Total ram usage:        6 bytes
  2329 ;; Hardware stack levels used: 1
  2330 ;; Hardware stack levels required when called: 4
  2331 ;; This function calls:
  2332 ;;		_vfpfcnvrt
  2333 ;; This function is called by:
  2334 ;;		_sprintf
  2335 ;; This function uses a non-reentrant model
  2336 ;;
  2337                           
  2338                           	psect	text4
  2339   003E3C                     __ptext4:
  2340                           	callstack 0
  2341   003E3C                     _vfprintf:
  2342                           	callstack 120
  2343   003E3C                     
  2344                           ;C:\Program Files\Microchip\xc8\v3.00\pic\sources\c99\common\doprnt.c: 1817: int vfprint
      +                          f(FILE *fp, const char *fmt, va_list ap);C:\Program Files\Microchip\xc8\v3.00\pic\source
      +                          s\c99\common\doprnt.c: 1818: {;C:\Program Files\Microchip\xc8\v3.00\pic\sources\c99\comm
      +                          on\doprnt.c: 1820:     char *cfmt;;C:\Program Files\Microchip\xc8\v3.00\pic\sources\c99\
      +                          common\doprnt.c: 1822:     cfmt = (char *)fmt;
  2345   003E3C  C523  F526         	movff	vfprintf@fmt,vfprintf@cfmt
  2346                           
  2347                           ;C:\Program Files\Microchip\xc8\v3.00\pic\sources\c99\common\doprnt.c: 1826:     while (
      +                          *cfmt) {
  2348   003E40  EF30  F01F         	goto	l1561
  2349   003E44                     l1559:
  2350                           
  2351                           ;C:\Program Files\Microchip\xc8\v3.00\pic\sources\c99\common\doprnt.c: 1830:    vfpfcnvr
      +                          t(fp, &cfmt, ap);
  2352   003E44  C521  F50E         	movff	vfprintf@fp,vfpfcnvrt@fp
  2353   003E48  C522  F50F         	movff	vfprintf@fp+1,vfpfcnvrt@fp+1
  2354   003E4C  0E26               	movlw	low vfprintf@cfmt
  2355   003E4E  6E10               	movwf	vfpfcnvrt@fmt^(0+1280),c
  2356   003E50  0E05               	movlw	high vfprintf@cfmt
  2357   003E52  6E11               	movwf	(vfpfcnvrt@fmt+1)^(0+1280),c
  2358   003E54  C524  F512         	movff	vfprintf@ap,vfpfcnvrt@ap
  2359   003E58  C525  F513         	movff	vfprintf@ap+1,vfpfcnvrt@ap+1
  2360   003E5C  EC0E  F017         	call	_vfpfcnvrt	;wreg free
  2361   003E60                     l1561:
  2362                           
  2363                           ;C:\Program Files\Microchip\xc8\v3.00\pic\sources\c99\common\doprnt.c: 1826:     while (
      +                          *cfmt) {
  2364   003E60  C526  F4F6         	movff	vfprintf@cfmt,tblptrl
  2365   003E64                     	if	1	;There is more than 1 active tblptr byte
  2366   003E64  0E2E               	movlw	high __smallconst
  2367   003E66  6EF7               	movwf	tblptrh,c
  2368   003E68                     	endif
  2369   003E68                     	if	0	;tblptru may be non-zero
  2370   003E68                     	endif
  2371   003E68                     	if	0	;tblptru may be non-zero
  2372   003E68                     	endif
  2373   003E68  0008               	tblrd		*
  2374   003E6A  50F5               	movf	tablat,w,c
  2375   003E6C  0900               	iorlw	0
  2376   003E6E  A4D8               	btfss	status,2,c
  2377   003E70  EF3C  F01F         	goto	u1051
  2378   003E74  EF3E  F01F         	goto	u1050
  2379   003E78                     u1051:
  2380   003E78  EF22  F01F         	goto	l1559
  2381   003E7C                     u1050:
  2382   003E7C                     
  2383                           ;C:\Program Files\Microchip\xc8\v3.00\pic\sources\c99\common\doprnt.c: 1835:  return 0;
  2384   003E7C  0E00               	movlw	0
  2385   003E7E  6E22               	movwf	(?_vfprintf+1)^(0+1280),c
  2386   003E80  0E00               	movlw	0
  2387   003E82  6E21               	movwf	?_vfprintf^(0+1280),c
  2388   003E84  0012               	return		;funcret
  2389   003E86                     __end_of_vfprintf:
  2390                           	callstack 0
  2391                           
  2392 ;; *************** function _vfpfcnvrt *****************
  2393 ;; Defined at:
  2394 ;;		line 1177 in file "C:\Program Files\Microchip\xc8\v3.00\pic\sources\c99\common\doprnt.c"
  2395 ;; Parameters:    Size  Location     Type
  2396 ;;  fp              2   13[COMRAM] PTR struct _IO_FILE
  2397 ;;		 -> sprintf@f(11), 
  2398 ;;  fmt             2   15[COMRAM] PTR PTR unsigned char 
  2399 ;;		 -> vfprintf@cfmt(1), 
  2400 ;;  ap              2   17[COMRAM] PTR PTR void 
  2401 ;;		 -> sprintf@ap(2), 
  2402 ;; Auto vars:     Size  Location     Type
  2403 ;;  cp              2   24[COMRAM] PTR unsigned char 
  2404 ;;		 -> ?_sprintf(2), updateDisplay@unit_off(3), updateDisplay@unit_on(3), 
  2405 ;;  convarg         4   26[COMRAM] struct .
  2406 ;;  c               1   31[COMRAM] unsigned char 
  2407 ;;  cp              1   30[COMRAM] PTR unsigned char 
  2408 ;;		 -> STR_7(19), 
  2409 ;;  done            1   23[COMRAM] _Bool 
  2410 ;; Return value:  Size  Location     Type
  2411 ;;                  1    wreg      void 
  2412 ;; Registers used:
  2413 ;;		wreg, fsr1l, fsr1h, fsr2l, fsr2h, status,2, status,0, tblptrl, tblptrh, tblptru, cstack
  2414 ;; Tracked objects:
  2415 ;;		On entry : 0/0
  2416 ;;		On exit  : 0/0
  2417 ;;		Unchanged: 0/0
  2418 ;; Data sizes:     COMRAM   BANK5   BANK6   BANK7   BANK8   BANK9  BANK10  BANK11  BANK12  BANK13  BANK14  BANK15  BANK1
      +6  BANK17  BANK18  BANK19  BANK20  BANK21  BANK22  BANK23  BANK24  BANK25  BANK26  BANK27  BANK28  BANK29  BANK30  BANK3
      +1  BANK32  BANK33  BANK34  BANK35  BANK36
  2419 ;;      Params:         6       0       0       0       0       0       0       0       0       0       0       0       
      +0       0       0       0       0       0       0       0       0       0       0       0       0       0       0       
      +0       0       0       0       0       0
  2420 ;;      Locals:         9       0       0       0       0       0       0       0       0       0       0       0       
      +0       0       0       0       0       0       0       0       0       0       0       0       0       0       0       
      +0       0       0       0       0       0
  2421 ;;      Temps:          4       0       0       0       0       0       0       0       0       0       0       0       
      +0       0       0       0       0       0       0       0       0       0       0       0       0       0       0       
      +0       0       0       0       0       0
  2422 ;;      Totals:        19       0       0       0       0       0       0       0       0       0       0       0       
      +0       0       0       0       0       0       0       0       0       0       0       0       0       0       0       
      +0       0       0       0       0       0
  2423 ;;Total ram usage:       19 bytes
  2424 ;; Hardware stack levels used: 1
  2425 ;; Hardware stack levels required when called: 3
  2426 ;; This function calls:
  2427 ;;		___lldiv
  2428 ;;		___llmod
  2429 ;;		_fputc
  2430 ;; This function is called by:
  2431 ;;		_vfprintf
  2432 ;; This function uses a non-reentrant model
  2433 ;;
  2434                           
  2435                           	psect	text5
  2436   002E1C                     __ptext5:
  2437                           	callstack 0
  2438   002E1C                     _vfpfcnvrt:
  2439                           	callstack 120
  2440   002E1C                     
  2441                           ;C:\Program Files\Microchip\xc8\v3.00\pic\sources\c99\common\doprnt.c: 1177: vfpfcnvrt(F
      +                          ILE *fp, char *fmt[], va_list ap);C:\Program Files\Microchip\xc8\v3.00\pic\sources\c99\c
      +                          ommon\doprnt.c: 1178: {;C:\Program Files\Microchip\xc8\v3.00\pic\sources\c99\common\dopr
      +                          nt.c: 1179:     char c, *cp;;C:\Program Files\Microchip\xc8\v3.00\pic\sources\c99\common
      +                          \doprnt.c: 1180:     _Bool done;;C:\Program Files\Microchip\xc8\v3.00\pic\sources\c99\co
      +                          mmon\doprnt.c: 1188:  } convarg;;C:\Program Files\Microchip\xc8\v3.00\pic\sources\c99\co
      +                          mmon\doprnt.c: 1201:     if ((*fmt)[0] == '%') {
  2442   002E1C  C510  F4D9         	movff	vfpfcnvrt@fmt,fsr2l
  2443   002E20  C511  F4DA         	movff	vfpfcnvrt@fmt+1,fsr2h
  2444   002E24  C4DF F4F6          	movff	indf2,tblptrl
  2445   002E28                     	if	1	;There is more than 1 active tblptr byte
  2446   002E28  0E2E               	movlw	high __smallconst
  2447   002E2A  6EF7               	movwf	tblptrh,c
  2448   002E2C                     	endif
  2449   002E2C                     	if	0	;tblptru may be non-zero
  2450   002E2C                     	endif
  2451   002E2C                     	if	0	;tblptru may be non-zero
  2452   002E2C                     	endif
  2453   002E2C  0008               	tblrd		*
  2454   002E2E  50F5               	movf	tablat,w,c
  2455   002E30  0A25               	xorlw	37
  2456   002E32  A4D8               	btfss	status,2,c
  2457   002E34  EF1E  F017         	goto	u911
  2458   002E38  EF20  F017         	goto	u910
  2459   002E3C                     u911:
  2460   002E3C  EFC7  F018         	goto	l1539
  2461   002E40                     u910:
  2462   002E40                     
  2463                           ;C:\Program Files\Microchip\xc8\v3.00\pic\sources\c99\common\doprnt.c: 1202:         ++*
      +                          fmt;
  2464   002E40  C510  F4D9         	movff	vfpfcnvrt@fmt,fsr2l
  2465   002E44  C511  F4DA         	movff	vfpfcnvrt@fmt+1,fsr2h
  2466   002E48  2ADF               	incf	indf2,f,c
  2467   002E4A                     
  2468                           ;C:\Program Files\Microchip\xc8\v3.00\pic\sources\c99\common\doprnt.c: 1204:         fla
      +                          gs = width = 0;
  2469   002E4A  0E00               	movlw	0
  2470   002E4C  0105               	movlb	5	; () banked
  2471   002E4E  6F89               	movwf	(_width+1)& (0+255),b
  2472   002E50  0E00               	movlw	0
  2473   002E52  6F88               	movwf	_width& (0+255),b
  2474   002E54  C588  F558         	movff	_width,_flags
  2475   002E58                     
  2476                           ; BSR set to: 5
  2477                           ;C:\Program Files\Microchip\xc8\v3.00\pic\sources\c99\common\doprnt.c: 1205:         pre
      +                          c = -1;
  2478   002E58  698A               	setf	_prec& (0+255),b
  2479   002E5A  698B               	setf	(_prec+1)& (0+255),b
  2480   002E5C                     
  2481                           ; BSR set to: 5
  2482                           ;C:\Program Files\Microchip\xc8\v3.00\pic\sources\c99\common\doprnt.c: 1291:   cp = *fmt
      +                          ;
  2483   002E5C  C510  F4D9         	movff	vfpfcnvrt@fmt,fsr2l
  2484   002E60  C511  F4DA         	movff	vfpfcnvrt@fmt+1,fsr2h
  2485   002E64  50DF               	movf	indf2,w,c
  2486   002E66  6E1F               	movwf	vfpfcnvrt@cp^(0+1280),c
  2487   002E68                     
  2488                           ; BSR set to: 5
  2489                           ;C:\Program Files\Microchip\xc8\v3.00\pic\sources\c99\common\doprnt.c: 1293:   c = *cp;
  2490   002E68  C51F  F4F6         	movff	vfpfcnvrt@cp,tblptrl
  2491   002E6C                     	if	1	;There is more than 1 active tblptr byte
  2492   002E6C  0E2E               	movlw	high __smallconst
  2493   002E6E  6EF7               	movwf	tblptrh,c
  2494   002E70                     	endif
  2495   002E70                     	if	0	;tblptru may be non-zero
  2496   002E70                     	endif
  2497   002E70                     	if	0	;tblptru may be non-zero
  2498   002E70                     	endif
  2499   002E70  0008               	tblrd		*
  2500   002E72  C4F5 F520          	movff	tablat,vfpfcnvrt@c
  2501                           
  2502                           ;C:\Program Files\Microchip\xc8\v3.00\pic\sources\c99\common\doprnt.c: 1294:   switch(c)
      +                           {
  2503   002E76  EF47  F017         	goto	l1475
  2504   002E7A                     l1469:
  2505                           
  2506                           ; BSR set to: 5
  2507                           ;C:\Program Files\Microchip\xc8\v3.00\pic\sources\c99\common\doprnt.c: 1309:     cp++;
  2508   002E7A  2A1F               	incf	vfpfcnvrt@cp^(0+1280),f,c
  2509                           
  2510                           ;C:\Program Files\Microchip\xc8\v3.00\pic\sources\c99\common\doprnt.c: 1316:     break;
  2511   002E7C  EF52  F017         	goto	l1477
  2512   002E80                     l1471:
  2513                           
  2514                           ; BSR set to: 5
  2515                           ;C:\Program Files\Microchip\xc8\v3.00\pic\sources\c99\common\doprnt.c: 1350:     c = 'i'
      +                          ;
  2516   002E80  0E69               	movlw	105
  2517   002E82  6E20               	movwf	vfpfcnvrt@c^(0+1280),c
  2518                           
  2519                           ;C:\Program Files\Microchip\xc8\v3.00\pic\sources\c99\common\doprnt.c: 1351:     break;
  2520   002E84  EF52  F017         	goto	l1477
  2521   002E88                     l883:
  2522                           
  2523                           ; BSR set to: 5
  2524                           ;C:\Program Files\Microchip\xc8\v3.00\pic\sources\c99\common\doprnt.c: 1353:     c = 0;
  2525   002E88  6A20               	clrf	vfpfcnvrt@c^(0+1280),c
  2526                           
  2527                           ;C:\Program Files\Microchip\xc8\v3.00\pic\sources\c99\common\doprnt.c: 1354:     break;
  2528   002E8A  EF52  F017         	goto	l1477
  2529   002E8E                     l1475:
  2530                           
  2531                           ; BSR set to: 5
  2532   002E8E  5020               	movf	vfpfcnvrt@c^(0+1280),w,c
  2533                           
  2534                           ; Switch size 1, requested type "simple"
  2535                           ; Number of cases is 2, Range of values is 108 to 117
  2536                           ; switch strategies available:
  2537                           ; Name         Instructions Cycles
  2538                           ; simple_byte            7     4 (average)
  2539                           ;	Chosen strategy is simple_byte
  2540   002E90  0A6C               	xorlw	108	; case 108
  2541   002E92  B4D8               	btfsc	status,2,c
  2542   002E94  EF3D  F017         	goto	l1469
  2543   002E98  0A19               	xorlw	25	; case 117
  2544   002E9A  B4D8               	btfsc	status,2,c
  2545   002E9C  EF40  F017         	goto	l1471
  2546   002EA0  EF44  F017         	goto	l883
  2547   002EA4                     l1477:
  2548                           
  2549                           ; BSR set to: 5
  2550   002EA4  C51F  F4F6         	movff	vfpfcnvrt@cp,tblptrl
  2551   002EA8                     	if	1	;There is more than 1 active tblptr byte
  2552   002EA8  0E2E               	movlw	high __smallconst
  2553   002EAA  6EF7               	movwf	tblptrh,c
  2554   002EAC                     	endif
  2555   002EAC                     	if	0	;tblptru may be non-zero
  2556   002EAC                     	endif
  2557   002EAC                     	if	0	;tblptru may be non-zero
  2558   002EAC                     	endif
  2559   002EAC  0008               	tblrd		*
  2560   002EAE  50F5               	movf	tablat,w,c
  2561   002EB0  0A75               	xorlw	117
  2562   002EB2  A4D8               	btfss	status,2,c
  2563   002EB4  EF5E  F017         	goto	u921
  2564   002EB8  EF60  F017         	goto	u920
  2565   002EBC                     u921:
  2566   002EBC  EF21  F018         	goto	l884
  2567   002EC0                     u920:
  2568   002EC0  EF98  F017         	goto	l1485
  2569   002EC4                     l1479:
  2570                           
  2571                           ; BSR set to: 5
  2572                           ;C:\Program Files\Microchip\xc8\v3.00\pic\sources\c99\common\doprnt.c: 1456:      convar
      +                          g.uint = (vfpf_uint_t)(unsigned int)(*(unsigned int *)__va_arg(*(unsigned int **)ap, (un
      +                          signed int)0));
  2573   002EC4  C512  F4D9         	movff	vfpfcnvrt@ap,fsr2l
  2574   002EC8  C513  F4DA         	movff	vfpfcnvrt@ap+1,fsr2h
  2575   002ECC  C4DF F514          	movff	indf2,??_vfpfcnvrt
  2576   002ED0  0E02               	movlw	2
  2577   002ED2  26DE               	addwf	postinc2,f,c
  2578   002ED4  C4DF F515          	movff	indf2,??_vfpfcnvrt+1
  2579   002ED8  0E00               	movlw	0
  2580   002EDA  22DD               	addwfc	postdec2,f,c
  2581   002EDC  C514  F4D9         	movff	??_vfpfcnvrt,fsr2l
  2582   002EE0  C515  F4DA         	movff	??_vfpfcnvrt+1,fsr2h
  2583   002EE4  C4DE F516          	movff	postinc2,??_vfpfcnvrt+2
  2584   002EE8  C4DD F517          	movff	postdec2,??_vfpfcnvrt+3
  2585   002EEC  C516  F51B         	movff	??_vfpfcnvrt+2,vfpfcnvrt@convarg
  2586   002EF0  C517  F51C         	movff	??_vfpfcnvrt+3,vfpfcnvrt@convarg+1
  2587   002EF4  6A1D               	clrf	(vfpfcnvrt@convarg+2)^(0+1280),c
  2588   002EF6  6A1E               	clrf	(vfpfcnvrt@convarg+3)^(0+1280),c
  2589                           
  2590                           ;C:\Program Files\Microchip\xc8\v3.00\pic\sources\c99\common\doprnt.c: 1457:      break;
  2591   002EF8  EFA3  F017         	goto	l1487
  2592   002EFC                     l1481:
  2593                           
  2594                           ; BSR set to: 5
  2595                           ;C:\Program Files\Microchip\xc8\v3.00\pic\sources\c99\common\doprnt.c: 1470:      convar
      +                          g.uint = (vfpf_uint_t)(*(unsigned long *)__va_arg(*(unsigned long **)ap, (unsigned long)
      +                          0));
  2596   002EFC  C512  F4D9         	movff	vfpfcnvrt@ap,fsr2l
  2597   002F00  C513  F4DA         	movff	vfpfcnvrt@ap+1,fsr2h
  2598   002F04  C4DF F514          	movff	indf2,??_vfpfcnvrt
  2599   002F08  0E04               	movlw	4
  2600   002F0A  26DE               	addwf	postinc2,f,c
  2601   002F0C  C4DF F515          	movff	indf2,??_vfpfcnvrt+1
  2602   002F10  0E00               	movlw	0
  2603   002F12  22DD               	addwfc	postdec2,f,c
  2604   002F14  C514  F4D9         	movff	??_vfpfcnvrt,fsr2l
  2605   002F18  C515  F4DA         	movff	??_vfpfcnvrt+1,fsr2h
  2606   002F1C  C4DE F51B          	movff	postinc2,vfpfcnvrt@convarg
  2607   002F20  C4DE F51C          	movff	postinc2,vfpfcnvrt@convarg+1
  2608   002F24  C4DE F51D          	movff	postinc2,vfpfcnvrt@convarg+2
  2609   002F28  C4DE F51E          	movff	postinc2,vfpfcnvrt@convarg+3
  2610                           
  2611                           ;C:\Program Files\Microchip\xc8\v3.00\pic\sources\c99\common\doprnt.c: 1471:      break;
  2612   002F2C  EFA3  F017         	goto	l1487
  2613   002F30                     l1485:
  2614                           
  2615                           ; BSR set to: 5
  2616   002F30  5020               	movf	vfpfcnvrt@c^(0+1280),w,c
  2617                           
  2618                           ; Switch size 1, requested type "simple"
  2619                           ; Number of cases is 2, Range of values is 105 to 108
  2620                           ; switch strategies available:
  2621                           ; Name         Instructions Cycles
  2622                           ; simple_byte            7     4 (average)
  2623                           ;	Chosen strategy is simple_byte
  2624   002F32  0A69               	xorlw	105	; case 105
  2625   002F34  B4D8               	btfsc	status,2,c
  2626   002F36  EF62  F017         	goto	l1479
  2627   002F3A  0A05               	xorlw	5	; case 108
  2628   002F3C  B4D8               	btfsc	status,2,c
  2629   002F3E  EF7E  F017         	goto	l1481
  2630   002F42  EFA3  F017         	goto	l1487
  2631   002F46                     l1487:
  2632                           
  2633                           ; BSR set to: 5
  2634                           ;C:\Program Files\Microchip\xc8\v3.00\pic\sources\c99\common\doprnt.c: 1497:    *fmt = c
      +                          p+1;
  2635   002F46  281F               	incf	vfpfcnvrt@cp^(0+1280),w,c
  2636   002F48  C510  F4D9         	movff	vfpfcnvrt@fmt,fsr2l
  2637   002F4C  C511  F4DA         	movff	vfpfcnvrt@fmt+1,fsr2h
  2638   002F50  6EDF               	movwf	indf2,c
  2639                           
  2640                           ;C:\Program Files\Microchip\xc8\v3.00\pic\sources\c99\common\doprnt.c: 1498:    switch (
      +                          *cp) {
  2641   002F52  EF15  F018         	goto	l1507
  2642   002F56                     l1489:
  2643                           
  2644                           ; BSR set to: 5
  2645                           ;C:\Program Files\Microchip\xc8\v3.00\pic\sources\c99\common\doprnt.c: 1525:      c = si
      +                          zeof(dbuf);
  2646   002F56  0E20               	movlw	32
  2647   002F58  6E20               	movwf	vfpfcnvrt@c^(0+1280),c
  2648   002F5A                     l1491:
  2649                           
  2650                           ;C:\Program Files\Microchip\xc8\v3.00\pic\sources\c99\common\doprnt.c: 1527:       dbuf[
      +                          --c] = (convarg.uint % 10) + '0';
  2651   002F5A  0620               	decf	vfpfcnvrt@c^(0+1280),f,c
  2652   002F5C  0E60               	movlw	low _dbuf
  2653   002F5E  2420               	addwf	vfpfcnvrt@c^(0+1280),w,c
  2654   002F60  6ED9               	movwf	fsr2l,c
  2655   002F62  6ADA               	clrf	fsr2h,c
  2656   002F64  0E05               	movlw	high _dbuf
  2657   002F66  22DA               	addwfc	fsr2h,f,c
  2658   002F68  C51B  F501         	movff	vfpfcnvrt@convarg,___llmod@dividend
  2659   002F6C  C51C  F502         	movff	vfpfcnvrt@convarg+1,___llmod@dividend+1
  2660   002F70  C51D  F503         	movff	vfpfcnvrt@convarg+2,___llmod@dividend+2
  2661   002F74  C51E  F504         	movff	vfpfcnvrt@convarg+3,___llmod@dividend+3
  2662   002F78  0E0A               	movlw	10
  2663   002F7A  6E05               	movwf	___llmod@divisor^(0+1280),c
  2664   002F7C  0E00               	movlw	0
  2665   002F7E  6E06               	movwf	(___llmod@divisor+1)^(0+1280),c
  2666   002F80  0E00               	movlw	0
  2667   002F82  6E07               	movwf	(___llmod@divisor+2)^(0+1280),c
  2668   002F84  0E00               	movlw	0
  2669   002F86  6E08               	movwf	(___llmod@divisor+3)^(0+1280),c
  2670   002F88  EC13  F01E         	call	___llmod	;wreg free
  2671   002F8C  5001               	movf	?___llmod^(0+1280),w,c
  2672   002F8E  0F30               	addlw	48
  2673   002F90  6EDF               	movwf	indf2,c
  2674   002F92                     
  2675                           ;C:\Program Files\Microchip\xc8\v3.00\pic\sources\c99\common\doprnt.c: 1528:       conva
      +                          rg.uint /= 10;
  2676   002F92  C51B  F501         	movff	vfpfcnvrt@convarg,___lldiv@dividend
  2677   002F96  C51C  F502         	movff	vfpfcnvrt@convarg+1,___lldiv@dividend+1
  2678   002F9A  C51D  F503         	movff	vfpfcnvrt@convarg+2,___lldiv@dividend+2
  2679   002F9E  C51E  F504         	movff	vfpfcnvrt@convarg+3,___lldiv@dividend+3
  2680   002FA2  0E0A               	movlw	10
  2681   002FA4  6E05               	movwf	___lldiv@divisor^(0+1280),c
  2682   002FA6  0E00               	movlw	0
  2683   002FA8  6E06               	movwf	(___lldiv@divisor+1)^(0+1280),c
  2684   002FAA  0E00               	movlw	0
  2685   002FAC  6E07               	movwf	(___lldiv@divisor+2)^(0+1280),c
  2686   002FAE  0E00               	movlw	0
  2687   002FB0  6E08               	movwf	(___lldiv@divisor+3)^(0+1280),c
  2688   002FB2  ECC1  F01D         	call	___lldiv	;wreg free
  2689   002FB6  C501  F51B         	movff	?___lldiv,vfpfcnvrt@convarg
  2690   002FBA  C502  F51C         	movff	?___lldiv+1,vfpfcnvrt@convarg+1
  2691   002FBE  C503  F51D         	movff	?___lldiv+2,vfpfcnvrt@convarg+2
  2692   002FC2  C504  F51E         	movff	?___lldiv+3,vfpfcnvrt@convarg+3
  2693   002FC6                     
  2694                           ;C:\Program Files\Microchip\xc8\v3.00\pic\sources\c99\common\doprnt.c: 1532:      } whil
      +                          e (convarg.uint != 0 && c != 0);
  2695   002FC6  501B               	movf	vfpfcnvrt@convarg^(0+1280),w,c
  2696   002FC8  101C               	iorwf	(vfpfcnvrt@convarg+1)^(0+1280),w,c
  2697   002FCA  101D               	iorwf	(vfpfcnvrt@convarg+2)^(0+1280),w,c
  2698   002FCC  101E               	iorwf	(vfpfcnvrt@convarg+3)^(0+1280),w,c
  2699   002FCE  B4D8               	btfsc	status,2,c
  2700   002FD0  EFEC  F017         	goto	u931
  2701   002FD4  EFEE  F017         	goto	u930
  2702   002FD8                     u931:
  2703   002FD8  EF0A  F018         	goto	l1503
  2704   002FDC                     u930:
  2705   002FDC  5020               	movf	vfpfcnvrt@c^(0+1280),w,c
  2706   002FDE  A4D8               	btfss	status,2,c
  2707   002FE0  EFF4  F017         	goto	u941
  2708   002FE4  EFF6  F017         	goto	u940
  2709   002FE8                     u941:
  2710   002FE8  EFAD  F017         	goto	l1491
  2711   002FEC                     u940:
  2712   002FEC  EF0A  F018         	goto	l1503
  2713   002FF0                     l1499:
  2714                           
  2715                           ;C:\Program Files\Microchip\xc8\v3.00\pic\sources\c99\common\doprnt.c: 1534:       fputc
      +                          (dbuf[c++], fp);
  2716   002FF0  0E60               	movlw	low _dbuf
  2717   002FF2  2420               	addwf	vfpfcnvrt@c^(0+1280),w,c
  2718   002FF4  6ED9               	movwf	fsr2l,c
  2719   002FF6  6ADA               	clrf	fsr2h,c
  2720   002FF8  0E05               	movlw	high _dbuf
  2721   002FFA  22DA               	addwfc	fsr2h,f,c
  2722   002FFC  50DF               	movf	indf2,w,c
  2723   002FFE  6E14               	movwf	??_vfpfcnvrt^(0+1280),c
  2724   003000  5014               	movf	??_vfpfcnvrt^(0+1280),w,c
  2725   003002  6E01               	movwf	fputc@c^(0+1280),c
  2726   003004  6A02               	clrf	(fputc@c+1)^(0+1280),c
  2727   003006  C50E  F503         	movff	vfpfcnvrt@fp,fputc@fp
  2728   00300A  C50F  F504         	movff	vfpfcnvrt@fp+1,fputc@fp+1
  2729   00300E  EC5C  F01D         	call	_fputc	;wreg free
  2730   003012  2A20               	incf	vfpfcnvrt@c^(0+1280),f,c
  2731   003014                     l1503:
  2732                           
  2733                           ;C:\Program Files\Microchip\xc8\v3.00\pic\sources\c99\common\doprnt.c: 1533:      while 
      +                          (c != sizeof(dbuf)) {
  2734   003014  0E20               	movlw	32
  2735   003016  1820               	xorwf	vfpfcnvrt@c^(0+1280),w,c
  2736   003018  A4D8               	btfss	status,2,c
  2737   00301A  EF11  F018         	goto	u951
  2738   00301E  EF13  F018         	goto	u950
  2739   003022                     u951:
  2740   003022  EFF8  F017         	goto	l1499
  2741   003026                     u950:
  2742   003026  EFDB  F018         	goto	l900
  2743   00302A                     l1507:
  2744                           
  2745                           ; BSR set to: 5
  2746   00302A  C51F  F4F6         	movff	vfpfcnvrt@cp,tblptrl
  2747   00302E                     	if	1	;There is more than 1 active tblptr byte
  2748   00302E  0E2E               	movlw	high __smallconst
  2749   003030  6EF7               	movwf	tblptrh,c
  2750   003032                     	endif
  2751   003032                     	if	0	;tblptru may be non-zero
  2752   003032                     	endif
  2753   003032                     	if	0	;tblptru may be non-zero
  2754   003032                     	endif
  2755   003032  0008               	tblrd		*
  2756   003034  50F5               	movf	tablat,w,c
  2757                           
  2758                           ; Switch size 1, requested type "simple"
  2759                           ; Number of cases is 1, Range of values is 117 to 117
  2760                           ; switch strategies available:
  2761                           ; Name         Instructions Cycles
  2762                           ; simple_byte            4     3 (average)
  2763                           ;	Chosen strategy is simple_byte
  2764   003036  0A75               	xorlw	117	; case 117
  2765   003038  B4D8               	btfsc	status,2,c
  2766   00303A  EFAB  F017         	goto	l1489
  2767   00303E  EF21  F018         	goto	l884
  2768   003042                     l884:
  2769                           
  2770                           ; BSR set to: 5
  2771                           ;C:\Program Files\Microchip\xc8\v3.00\pic\sources\c99\common\doprnt.c: 1656:   done = 0;
  2772   003042  6A18               	clrf	vfpfcnvrt@done^(0+1280),c
  2773   003044                     
  2774                           ; BSR set to: 5
  2775                           ;C:\Program Files\Microchip\xc8\v3.00\pic\sources\c99\common\doprnt.c: 1657:   if ((*fmt
      +                          )[0] == 's') {
  2776   003044  C510  F4D9         	movff	vfpfcnvrt@fmt,fsr2l
  2777   003048  C511  F4DA         	movff	vfpfcnvrt@fmt+1,fsr2h
  2778   00304C  C4DF F4F6          	movff	indf2,tblptrl
  2779   003050                     	if	1	;There is more than 1 active tblptr byte
  2780   003050  0E2E               	movlw	high __smallconst
  2781   003052  6EF7               	movwf	tblptrh,c
  2782   003054                     	endif
  2783   003054                     	if	0	;tblptru may be non-zero
  2784   003054                     	endif
  2785   003054                     	if	0	;tblptru may be non-zero
  2786   003054                     	endif
  2787   003054  0008               	tblrd		*
  2788   003056  50F5               	movf	tablat,w,c
  2789   003058  0A73               	xorlw	115
  2790   00305A  A4D8               	btfss	status,2,c
  2791   00305C  EF32  F018         	goto	u961
  2792   003060  EF34  F018         	goto	u960
  2793   003064                     u961:
  2794   003064  EF3D  F018         	goto	l1515
  2795   003068                     u960:
  2796   003068                     
  2797                           ; BSR set to: 5
  2798                           ;C:\Program Files\Microchip\xc8\v3.00\pic\sources\c99\common\doprnt.c: 1658:    ++*fmt;
  2799   003068  C510  F4D9         	movff	vfpfcnvrt@fmt,fsr2l
  2800   00306C  C511  F4DA         	movff	vfpfcnvrt@fmt+1,fsr2h
  2801   003070  2ADF               	incf	indf2,f,c
  2802   003072                     l1513:
  2803                           
  2804                           ; BSR set to: 5
  2805                           ;C:\Program Files\Microchip\xc8\v3.00\pic\sources\c99\common\doprnt.c: 1659:    done = 1
      +                          ;
  2806   003072  0E01               	movlw	1
  2807   003074  6E18               	movwf	vfpfcnvrt@done^(0+1280),c
  2808                           
  2809                           ;C:\Program Files\Microchip\xc8\v3.00\pic\sources\c99\common\doprnt.c: 1660:   }
  2810   003076  EF83  F018         	goto	l1525
  2811   00307A                     l1515:
  2812                           
  2813                           ; BSR set to: 5
  2814   00307A  C510  F4D9         	movff	vfpfcnvrt@fmt,fsr2l
  2815   00307E  C511  F4DA         	movff	vfpfcnvrt@fmt+1,fsr2h
  2816   003082  C4DF F4F6          	movff	indf2,tblptrl
  2817   003086                     	if	1	;There is more than 1 active tblptr byte
  2818   003086  0E2E               	movlw	high __smallconst
  2819   003088  6EF7               	movwf	tblptrh,c
  2820   00308A                     	endif
  2821   00308A                     	if	0	;tblptru may be non-zero
  2822   00308A                     	endif
  2823   00308A                     	if	0	;tblptru may be non-zero
  2824   00308A                     	endif
  2825   00308A  0008               	tblrd		*
  2826   00308C  50F5               	movf	tablat,w,c
  2827   00308E  0A6C               	xorlw	108
  2828   003090  A4D8               	btfss	status,2,c
  2829   003092  EF4D  F018         	goto	u971
  2830   003096  EF4F  F018         	goto	u970
  2831   00309A                     u971:
  2832   00309A  EF83  F018         	goto	l1525
  2833   00309E                     u970:
  2834   00309E                     
  2835                           ; BSR set to: 5
  2836   00309E  C510  F4D9         	movff	vfpfcnvrt@fmt,fsr2l
  2837   0030A2  C511  F4DA         	movff	vfpfcnvrt@fmt+1,fsr2h
  2838   0030A6  50DF               	movf	indf2,w,c
  2839   0030A8  6E14               	movwf	??_vfpfcnvrt^(0+1280),c
  2840   0030AA  0E01               	movlw	1
  2841   0030AC  2614               	addwf	??_vfpfcnvrt^(0+1280),f,c
  2842   0030AE  C514  F4F6         	movff	??_vfpfcnvrt,tblptrl
  2843   0030B2                     	if	1	;There is more than 1 active tblptr byte
  2844   0030B2  0E2E               	movlw	high __smallconst
  2845   0030B4  6EF7               	movwf	tblptrh,c
  2846   0030B6                     	endif
  2847   0030B6                     	if	0	;tblptru may be non-zero
  2848   0030B6                     	endif
  2849   0030B6                     	if	0	;tblptru may be non-zero
  2850   0030B6                     	endif
  2851   0030B6  0008               	tblrd		*
  2852   0030B8  50F5               	movf	tablat,w,c
  2853   0030BA  0A6C               	xorlw	108
  2854   0030BC  A4D8               	btfss	status,2,c
  2855   0030BE  EF63  F018         	goto	u981
  2856   0030C2  EF65  F018         	goto	u980
  2857   0030C6                     u981:
  2858   0030C6  EF83  F018         	goto	l1525
  2859   0030CA                     u980:
  2860   0030CA                     
  2861                           ; BSR set to: 5
  2862   0030CA  C510  F4D9         	movff	vfpfcnvrt@fmt,fsr2l
  2863   0030CE  C511  F4DA         	movff	vfpfcnvrt@fmt+1,fsr2h
  2864   0030D2  50DF               	movf	indf2,w,c
  2865   0030D4  6E14               	movwf	??_vfpfcnvrt^(0+1280),c
  2866   0030D6  0E02               	movlw	2
  2867   0030D8  2614               	addwf	??_vfpfcnvrt^(0+1280),f,c
  2868   0030DA  C514  F4F6         	movff	??_vfpfcnvrt,tblptrl
  2869   0030DE                     	if	1	;There is more than 1 active tblptr byte
  2870   0030DE  0E2E               	movlw	high __smallconst
  2871   0030E0  6EF7               	movwf	tblptrh,c
  2872   0030E2                     	endif
  2873   0030E2                     	if	0	;tblptru may be non-zero
  2874   0030E2                     	endif
  2875   0030E2                     	if	0	;tblptru may be non-zero
  2876   0030E2                     	endif
  2877   0030E2  0008               	tblrd		*
  2878   0030E4  50F5               	movf	tablat,w,c
  2879   0030E6  0A73               	xorlw	115
  2880   0030E8  A4D8               	btfss	status,2,c
  2881   0030EA  EF79  F018         	goto	u991
  2882   0030EE  EF7B  F018         	goto	u990
  2883   0030F2                     u991:
  2884   0030F2  EF83  F018         	goto	l1525
  2885   0030F6                     u990:
  2886   0030F6                     
  2887                           ; BSR set to: 5
  2888                           ;C:\Program Files\Microchip\xc8\v3.00\pic\sources\c99\common\doprnt.c: 1662:    *fmt += 
      +                          3;
  2889   0030F6  C510  F4D9         	movff	vfpfcnvrt@fmt,fsr2l
  2890   0030FA  C511  F4DA         	movff	vfpfcnvrt@fmt+1,fsr2h
  2891   0030FE  0E03               	movlw	3
  2892   003100  26DF               	addwf	indf2,f,c
  2893   003102  EF39  F018         	goto	l1513
  2894   003106                     l1525:
  2895                           
  2896                           ; BSR set to: 5
  2897                           ;C:\Program Files\Microchip\xc8\v3.00\pic\sources\c99\common\doprnt.c: 1665:   if (done)
      +                           {
  2898   003106  5018               	movf	vfpfcnvrt@done^(0+1280),w,c
  2899   003108  B4D8               	btfsc	status,2,c
  2900   00310A  EF89  F018         	goto	u1001
  2901   00310E  EF8B  F018         	goto	u1000
  2902   003112                     u1001:
  2903   003112  EFC0  F018         	goto	l1535
  2904   003116                     u1000:
  2905   003116                     
  2906                           ; BSR set to: 5
  2907                           ;C:\Program Files\Microchip\xc8\v3.00\pic\sources\c99\common\doprnt.c: 1669:    for (cha
      +                          r * cp = (*(char * *)__va_arg(*(char * **)ap, (char *)0)); *cp != '\0'; cp++) {
  2908   003116  C512  F4D9         	movff	vfpfcnvrt@ap,fsr2l
  2909   00311A  C513  F4DA         	movff	vfpfcnvrt@ap+1,fsr2h
  2910   00311E  C4DF F514          	movff	indf2,??_vfpfcnvrt
  2911   003122  0E02               	movlw	2
  2912   003124  26DE               	addwf	postinc2,f,c
  2913   003126  C4DF F515          	movff	indf2,??_vfpfcnvrt+1
  2914   00312A  0E00               	movlw	0
  2915   00312C  22DD               	addwfc	postdec2,f,c
  2916   00312E  C514  F4D9         	movff	??_vfpfcnvrt,fsr2l
  2917   003132  C515  F4DA         	movff	??_vfpfcnvrt+1,fsr2h
  2918   003136  C4DE F519          	movff	postinc2,vfpfcnvrt@cp_859
  2919   00313A  C4DD F51A          	movff	postdec2,vfpfcnvrt@cp_859+1
  2920   00313E  EFB2  F018         	goto	l1533
  2921   003142                     l1529:
  2922                           
  2923                           ;C:\Program Files\Microchip\xc8\v3.00\pic\sources\c99\common\doprnt.c: 1670:     fputc(*
      +                          cp, fp);
  2924   003142  C519  F4D9         	movff	vfpfcnvrt@cp_859,fsr2l
  2925   003146  C51A  F4DA         	movff	vfpfcnvrt@cp_859+1,fsr2h
  2926   00314A  50DF               	movf	indf2,w,c
  2927   00314C  6E14               	movwf	??_vfpfcnvrt^(0+1280),c
  2928   00314E  5014               	movf	??_vfpfcnvrt^(0+1280),w,c
  2929   003150  6E01               	movwf	fputc@c^(0+1280),c
  2930   003152  6A02               	clrf	(fputc@c+1)^(0+1280),c
  2931   003154  C50E  F503         	movff	vfpfcnvrt@fp,fputc@fp
  2932   003158  C50F  F504         	movff	vfpfcnvrt@fp+1,fputc@fp+1
  2933   00315C  EC5C  F01D         	call	_fputc	;wreg free
  2934   003160                     
  2935                           ;C:\Program Files\Microchip\xc8\v3.00\pic\sources\c99\common\doprnt.c: 1674:    }
  2936   003160  4A19               	infsnz	vfpfcnvrt@cp_859^(0+1280),f,c
  2937   003162  2A1A               	incf	(vfpfcnvrt@cp_859+1)^(0+1280),f,c
  2938   003164                     l1533:
  2939   003164  C519  F4D9         	movff	vfpfcnvrt@cp_859,fsr2l
  2940   003168  C51A  F4DA         	movff	vfpfcnvrt@cp_859+1,fsr2h
  2941   00316C  50DF               	movf	indf2,w,c
  2942   00316E  A4D8               	btfss	status,2,c
  2943   003170  EFBC  F018         	goto	u1011
  2944   003174  EFBE  F018         	goto	u1010
  2945   003178                     u1011:
  2946   003178  EFA1  F018         	goto	l1529
  2947   00317C                     u1010:
  2948   00317C  EFDB  F018         	goto	l900
  2949   003180                     l1535:
  2950                           
  2951                           ;C:\Program Files\Microchip\xc8\v3.00\pic\sources\c99\common\doprnt.c: 1806:         ++*
      +                          fmt;
  2952   003180  C510  F4D9         	movff	vfpfcnvrt@fmt,fsr2l
  2953   003184  C511  F4DA         	movff	vfpfcnvrt@fmt+1,fsr2h
  2954   003188  2ADF               	incf	indf2,f,c
  2955   00318A  EFDB  F018         	goto	l900
  2956   00318E                     l1539:
  2957                           
  2958                           ;C:\Program Files\Microchip\xc8\v3.00\pic\sources\c99\common\doprnt.c: 1811:     fputc((
      +                          int)(*fmt)[0], fp);
  2959   00318E  C510  F4D9         	movff	vfpfcnvrt@fmt,fsr2l
  2960   003192  C511  F4DA         	movff	vfpfcnvrt@fmt+1,fsr2h
  2961   003196  C4DF F4F6          	movff	indf2,tblptrl
  2962   00319A                     	if	1	;There is more than 1 active tblptr byte
  2963   00319A  0E2E               	movlw	high __smallconst
  2964   00319C  6EF7               	movwf	tblptrh,c
  2965   00319E                     	endif
  2966   00319E                     	if	0	;tblptru may be non-zero
  2967   00319E                     	endif
  2968   00319E                     	if	0	;tblptru may be non-zero
  2969   00319E                     	endif
  2970   00319E  0008               	tblrd		*
  2971   0031A0  50F5               	movf	tablat,w,c
  2972   0031A2  6E01               	movwf	fputc@c^(0+1280),c
  2973   0031A4  6A02               	clrf	(fputc@c+1)^(0+1280),c
  2974   0031A6  C50E  F503         	movff	vfpfcnvrt@fp,fputc@fp
  2975   0031AA  C50F  F504         	movff	vfpfcnvrt@fp+1,fputc@fp+1
  2976   0031AE  EC5C  F01D         	call	_fputc	;wreg free
  2977   0031B2  EFC0  F018         	goto	l1535
  2978   0031B6                     l900:
  2979   0031B6  0012               	return		;funcret
  2980   0031B8                     __end_of_vfpfcnvrt:
  2981                           	callstack 0
  2982                           
  2983 ;; *************** function _fputc *****************
  2984 ;; Defined at:
  2985 ;;		line 8 in file "C:\Program Files\Microchip\xc8\v3.00\pic\sources\c99\common\nf_fputc.c"
  2986 ;; Parameters:    Size  Location     Type
  2987 ;;  c               2    0[COMRAM] int 
  2988 ;;  fp              2    2[COMRAM] PTR struct _IO_FILE
  2989 ;;		 -> sprintf@f(11), 
  2990 ;; Auto vars:     Size  Location     Type
  2991 ;;		None
  2992 ;; Return value:  Size  Location     Type
  2993 ;;                  2    0[COMRAM] int 
  2994 ;; Registers used:
  2995 ;;		wreg, fsr1l, fsr1h, fsr2l, fsr2h, status,2, status,0, cstack
  2996 ;; Tracked objects:
  2997 ;;		On entry : 0/0
  2998 ;;		On exit  : 0/0
  2999 ;;		Unchanged: 0/0
  3000 ;; Data sizes:     COMRAM   BANK5   BANK6   BANK7   BANK8   BANK9  BANK10  BANK11  BANK12  BANK13  BANK14  BANK15  BANK1
      +6  BANK17  BANK18  BANK19  BANK20  BANK21  BANK22  BANK23  BANK24  BANK25  BANK26  BANK27  BANK28  BANK29  BANK30  BANK3
      +1  BANK32  BANK33  BANK34  BANK35  BANK36
  3001 ;;      Params:         4       0       0       0       0       0       0       0       0       0       0       0       
      +0       0       0       0       0       0       0       0       0       0       0       0       0       0       0       
      +0       0       0       0       0       0
  3002 ;;      Locals:         0       0       0       0       0       0       0       0       0       0       0       0       
      +0       0       0       0       0       0       0       0       0       0       0       0       0       0       0       
      +0       0       0       0       0       0
  3003 ;;      Temps:          5       0       0       0       0       0       0       0       0       0       0       0       
      +0       0       0       0       0       0       0       0       0       0       0       0       0       0       0       
      +0       0       0       0       0       0
  3004 ;;      Totals:         9       0       0       0       0       0       0       0       0       0       0       0       
      +0       0       0       0       0       0       0       0       0       0       0       0       0       0       0       
      +0       0       0       0       0       0
  3005 ;;Total ram usage:        9 bytes
  3006 ;; Hardware stack levels used: 1
  3007 ;; Hardware stack levels required when called: 2
  3008 ;; This function calls:
  3009 ;;		_putch
  3010 ;; This function is called by:
  3011 ;;		_vfpfcnvrt
  3012 ;; This function uses a non-reentrant model
  3013 ;;
  3014                           
  3015                           	psect	text6
  3016   003AB8                     __ptext6:
  3017                           	callstack 0
  3018   003AB8                     _fputc:
  3019                           	callstack 120
  3020   003AB8  5003               	movf	fputc@fp^(0+1280),w,c
  3021   003ABA  1004               	iorwf	(fputc@fp+1)^(0+1280),w,c
  3022   003ABC  B4D8               	btfsc	status,2,c
  3023   003ABE  EF63  F01D         	goto	u871
  3024   003AC2  EF65  F01D         	goto	u870
  3025   003AC6                     u871:
  3026   003AC6  EF6E  F01D         	goto	l1447
  3027   003ACA                     u870:
  3028   003ACA  5003               	movf	fputc@fp^(0+1280),w,c
  3029   003ACC  1004               	iorwf	(fputc@fp+1)^(0+1280),w,c
  3030   003ACE  A4D8               	btfss	status,2,c
  3031   003AD0  EF6C  F01D         	goto	u881
  3032   003AD4  EF6E  F01D         	goto	u880
  3033   003AD8                     u881:
  3034   003AD8  EF73  F01D         	goto	l1449
  3035   003ADC                     u880:
  3036   003ADC                     l1447:
  3037   003ADC  5001               	movf	fputc@c^(0+1280),w,c
  3038   003ADE  ECC0  F01F         	call	_putch
  3039   003AE2  EFC0  F01D         	goto	l926
  3040   003AE6                     l1449:
  3041   003AE6  EE20 F009          	lfsr	2,9
  3042   003AEA  5003               	movf	fputc@fp^(0+1280),w,c
  3043   003AEC  26D9               	addwf	fsr2l,f,c
  3044   003AEE  5004               	movf	(fputc@fp+1)^(0+1280),w,c
  3045   003AF0  22DA               	addwfc	fsr2h,f,c
  3046   003AF2  50DE               	movf	postinc2,w,c
  3047   003AF4  10DE               	iorwf	postinc2,w,c
  3048   003AF6  B4D8               	btfsc	status,2,c
  3049   003AF8  EF80  F01D         	goto	u891
  3050   003AFC  EF82  F01D         	goto	u890
  3051   003B00                     u891:
  3052   003B00  EF9D  F01D         	goto	l1453
  3053   003B04                     u890:
  3054   003B04  EE20 F009          	lfsr	2,9
  3055   003B08  5003               	movf	fputc@fp^(0+1280),w,c
  3056   003B0A  26D9               	addwf	fsr2l,f,c
  3057   003B0C  5004               	movf	(fputc@fp+1)^(0+1280),w,c
  3058   003B0E  22DA               	addwfc	fsr2h,f,c
  3059   003B10  EE10 F002          	lfsr	1,2
  3060   003B14  5003               	movf	fputc@fp^(0+1280),w,c
  3061   003B16  26E1               	addwf	fsr1l,f,c
  3062   003B18  5004               	movf	(fputc@fp+1)^(0+1280),w,c
  3063   003B1A  22E2               	addwfc	fsr1h,f,c
  3064   003B1C  50DE               	movf	postinc2,w,c
  3065   003B1E  5CE6               	subwf	postinc1,w,c
  3066   003B20  50E6               	movf	postinc1,w,c
  3067   003B22  0A80               	xorlw	128
  3068   003B24  6E09               	movwf	(??_fputc+4)^(0+1280),c
  3069   003B26  50DE               	movf	postinc2,w,c
  3070   003B28  0A80               	xorlw	128
  3071   003B2A  5809               	subwfb	(??_fputc+4)^(0+1280),w,c
  3072   003B2C  B0D8               	btfsc	status,0,c
  3073   003B2E  EF9B  F01D         	goto	u901
  3074   003B32  EF9D  F01D         	goto	u900
  3075   003B36                     u901:
  3076   003B36  EFC0  F01D         	goto	l926
  3077   003B3A                     u900:
  3078   003B3A                     l1453:
  3079   003B3A  EE20 F002          	lfsr	2,2
  3080   003B3E  5003               	movf	fputc@fp^(0+1280),w,c
  3081   003B40  26D9               	addwf	fsr2l,f,c
  3082   003B42  5004               	movf	(fputc@fp+1)^(0+1280),w,c
  3083   003B44  22DA               	addwfc	fsr2h,f,c
  3084   003B46  C4DE F505          	movff	postinc2,??_fputc
  3085   003B4A  C4DD F506          	movff	postdec2,??_fputc+1
  3086   003B4E  C503  F4D9         	movff	fputc@fp,fsr2l
  3087   003B52  C504  F4DA         	movff	fputc@fp+1,fsr2h
  3088   003B56  C4DE F507          	movff	postinc2,??_fputc+2
  3089   003B5A  C4DD F508          	movff	postdec2,??_fputc+3
  3090   003B5E  5005               	movf	??_fputc^(0+1280),w,c
  3091   003B60  2407               	addwf	(??_fputc+2)^(0+1280),w,c
  3092   003B62  6ED9               	movwf	fsr2l,c
  3093   003B64  5006               	movf	(??_fputc+1)^(0+1280),w,c
  3094   003B66  2008               	addwfc	(??_fputc+3)^(0+1280),w,c
  3095   003B68  6EDA               	movwf	fsr2h,c
  3096   003B6A  C501  F4DF         	movff	fputc@c,indf2
  3097   003B6E  EE20 F002          	lfsr	2,2
  3098   003B72  5003               	movf	fputc@fp^(0+1280),w,c
  3099   003B74  26D9               	addwf	fsr2l,f,c
  3100   003B76  5004               	movf	(fputc@fp+1)^(0+1280),w,c
  3101   003B78  22DA               	addwfc	fsr2h,f,c
  3102   003B7A  2ADE               	incf	postinc2,f,c
  3103   003B7C  0E00               	movlw	0
  3104   003B7E  22DD               	addwfc	postdec2,f,c
  3105   003B80                     l926:
  3106   003B80  0012               	return		;funcret
  3107   003B82                     __end_of_fputc:
  3108                           	callstack 0
  3109                           
  3110 ;; *************** function _putch *****************
  3111 ;; Defined at:
  3112 ;;		line 7 in file "C:\Program Files\Microchip\xc8\v3.00\pic\sources\c99\common\putch.c"
  3113 ;; Parameters:    Size  Location     Type
  3114 ;;  c               1    wreg     unsigned char 
  3115 ;; Auto vars:     Size  Location     Type
  3116 ;;  c               1    0[COMRAM] unsigned char 
  3117 ;; Return value:  Size  Location     Type
  3118 ;;                  1    wreg      void 
  3119 ;; Registers used:
  3120 ;;		wreg
  3121 ;; Tracked objects:
  3122 ;;		On entry : 0/0
  3123 ;;		On exit  : 0/0
  3124 ;;		Unchanged: 0/0
  3125 ;; Data sizes:     COMRAM   BANK5   BANK6   BANK7   BANK8   BANK9  BANK10  BANK11  BANK12  BANK13  BANK14  BANK15  BANK1
      +6  BANK17  BANK18  BANK19  BANK20  BANK21  BANK22  BANK23  BANK24  BANK25  BANK26  BANK27  BANK28  BANK29  BANK30  BANK3
      +1  BANK32  BANK33  BANK34  BANK35  BANK36
  3126 ;;      Params:         0       0       0       0       0       0       0       0       0       0       0       0       
      +0       0       0       0       0       0       0       0       0       0       0       0       0       0       0       
      +0       0       0       0       0       0
  3127 ;;      Locals:         0       0       0       0       0       0       0       0       0       0       0       0       
      +0       0       0       0       0       0       0       0       0       0       0       0       0       0       0       
      +0       0       0       0       0       0
  3128 ;;      Temps:          0       0       0       0       0       0       0       0       0       0       0       0       
      +0       0       0       0       0       0       0       0       0       0       0       0       0       0       0       
      +0       0       0       0       0       0
  3129 ;;      Totals:         0       0       0       0       0       0       0       0       0       0       0       0       
      +0       0       0       0       0       0       0       0       0       0       0       0       0       0       0       
      +0       0       0       0       0       0
  3130 ;;Total ram usage:        0 bytes
  3131 ;; Hardware stack levels used: 1
  3132 ;; Hardware stack levels required when called: 1
  3133 ;; This function calls:
  3134 ;;		Nothing
  3135 ;; This function is called by:
  3136 ;;		_fputc
  3137 ;; This function uses a non-reentrant model
  3138 ;;
  3139                           
  3140                           	psect	text7
  3141   003F80                     __ptext7:
  3142                           	callstack 0
  3143   003F80                     _putch:
  3144                           	callstack 120
  3145   003F80  0012               	return		;funcret
  3146   003F82                     __end_of_putch:
  3147                           	callstack 0
  3148                           
  3149 ;; *************** function ___llmod *****************
  3150 ;; Defined at:
  3151 ;;		line 7 in file "C:\Program Files\Microchip\xc8\v3.00\pic\sources\c99\common\llmod.c"
  3152 ;; Parameters:    Size  Location     Type
  3153 ;;  dividend        4    0[COMRAM] unsigned long 
  3154 ;;  divisor         4    4[COMRAM] unsigned long 
  3155 ;; Auto vars:     Size  Location     Type
  3156 ;;  counter         1    8[COMRAM] unsigned char 
  3157 ;; Return value:  Size  Location     Type
  3158 ;;                  4    0[COMRAM] unsigned long 
  3159 ;; Registers used:
  3160 ;;		wreg, status,2, status,0
  3161 ;; Tracked objects:
  3162 ;;		On entry : 0/0
  3163 ;;		On exit  : 0/0
  3164 ;;		Unchanged: 0/0
  3165 ;; Data sizes:     COMRAM   BANK5   BANK6   BANK7   BANK8   BANK9  BANK10  BANK11  BANK12  BANK13  BANK14  BANK15  BANK1
      +6  BANK17  BANK18  BANK19  BANK20  BANK21  BANK22  BANK23  BANK24  BANK25  BANK26  BANK27  BANK28  BANK29  BANK30  BANK3
      +1  BANK32  BANK33  BANK34  BANK35  BANK36
  3166 ;;      Params:         8       0       0       0       0       0       0       0       0       0       0       0       
      +0       0       0       0       0       0       0       0       0       0       0       0       0       0       0       
      +0       0       0       0       0       0
  3167 ;;      Locals:         1       0       0       0       0       0       0       0       0       0       0       0       
      +0       0       0       0       0       0       0       0       0       0       0       0       0       0       0       
      +0       0       0       0       0       0
  3168 ;;      Temps:          0       0       0       0       0       0       0       0       0       0       0       0       
      +0       0       0       0       0       0       0       0       0       0       0       0       0       0       0       
      +0       0       0       0       0       0
  3169 ;;      Totals:         9       0       0       0       0       0       0       0       0       0       0       0       
      +0       0       0       0       0       0       0       0       0       0       0       0       0       0       0       
      +0       0       0       0       0       0
  3170 ;;Total ram usage:        9 bytes
  3171 ;; Hardware stack levels used: 1
  3172 ;; Hardware stack levels required when called: 1
  3173 ;; This function calls:
  3174 ;;		Nothing
  3175 ;; This function is called by:
  3176 ;;		_vfpfcnvrt
  3177 ;; This function uses a non-reentrant model
  3178 ;;
  3179                           
  3180                           	psect	text8
  3181   003C26                     __ptext8:
  3182                           	callstack 0
  3183   003C26                     ___llmod:
  3184                           	callstack 121
  3185   003C26  5005               	movf	___llmod@divisor^(0+1280),w,c
  3186   003C28  1006               	iorwf	(___llmod@divisor+1)^(0+1280),w,c
  3187   003C2A  1007               	iorwf	(___llmod@divisor+2)^(0+1280),w,c
  3188   003C2C  1008               	iorwf	(___llmod@divisor+3)^(0+1280),w,c
  3189   003C2E  B4D8               	btfsc	status,2,c
  3190   003C30  EF1C  F01E         	goto	u841
  3191   003C34  EF1E  F01E         	goto	u840
  3192   003C38                     u841:
  3193   003C38  EF4E  F01E         	goto	l596
  3194   003C3C                     u840:
  3195   003C3C  0E01               	movlw	1
  3196   003C3E  6E09               	movwf	___llmod@counter^(0+1280),c
  3197   003C40  EF28  F01E         	goto	l1433
  3198   003C44                     l1431:
  3199   003C44  90D8               	bcf	status,0,c
  3200   003C46  3605               	rlcf	___llmod@divisor^(0+1280),f,c
  3201   003C48  3606               	rlcf	(___llmod@divisor+1)^(0+1280),f,c
  3202   003C4A  3607               	rlcf	(___llmod@divisor+2)^(0+1280),f,c
  3203   003C4C  3608               	rlcf	(___llmod@divisor+3)^(0+1280),f,c
  3204   003C4E  2A09               	incf	___llmod@counter^(0+1280),f,c
  3205   003C50                     l1433:
  3206   003C50  AE08               	btfss	(___llmod@divisor+3)^(0+1280),7,c
  3207   003C52  EF2D  F01E         	goto	u851
  3208   003C56  EF2F  F01E         	goto	u850
  3209   003C5A                     u851:
  3210   003C5A  EF22  F01E         	goto	l1431
  3211   003C5E                     u850:
  3212   003C5E                     l1435:
  3213   003C5E  5005               	movf	___llmod@divisor^(0+1280),w,c
  3214   003C60  5C01               	subwf	___llmod@dividend^(0+1280),w,c
  3215   003C62  5006               	movf	(___llmod@divisor+1)^(0+1280),w,c
  3216   003C64  5802               	subwfb	(___llmod@dividend+1)^(0+1280),w,c
  3217   003C66  5007               	movf	(___llmod@divisor+2)^(0+1280),w,c
  3218   003C68  5803               	subwfb	(___llmod@dividend+2)^(0+1280),w,c
  3219   003C6A  5008               	movf	(___llmod@divisor+3)^(0+1280),w,c
  3220   003C6C  5804               	subwfb	(___llmod@dividend+3)^(0+1280),w,c
  3221   003C6E  A0D8               	btfss	status,0,c
  3222   003C70  EF3C  F01E         	goto	u861
  3223   003C74  EF3E  F01E         	goto	u860
  3224   003C78                     u861:
  3225   003C78  EF46  F01E         	goto	l1439
  3226   003C7C                     u860:
  3227   003C7C  5005               	movf	___llmod@divisor^(0+1280),w,c
  3228   003C7E  5E01               	subwf	___llmod@dividend^(0+1280),f,c
  3229   003C80  5006               	movf	(___llmod@divisor+1)^(0+1280),w,c
  3230   003C82  5A02               	subwfb	(___llmod@dividend+1)^(0+1280),f,c
  3231   003C84  5007               	movf	(___llmod@divisor+2)^(0+1280),w,c
  3232   003C86  5A03               	subwfb	(___llmod@dividend+2)^(0+1280),f,c
  3233   003C88  5008               	movf	(___llmod@divisor+3)^(0+1280),w,c
  3234   003C8A  5A04               	subwfb	(___llmod@dividend+3)^(0+1280),f,c
  3235   003C8C                     l1439:
  3236   003C8C  90D8               	bcf	status,0,c
  3237   003C8E  3208               	rrcf	(___llmod@divisor+3)^(0+1280),f,c
  3238   003C90  3207               	rrcf	(___llmod@divisor+2)^(0+1280),f,c
  3239   003C92  3206               	rrcf	(___llmod@divisor+1)^(0+1280),f,c
  3240   003C94  3205               	rrcf	___llmod@divisor^(0+1280),f,c
  3241   003C96  2E09               	decfsz	___llmod@counter^(0+1280),f,c
  3242   003C98  EF2F  F01E         	goto	l1435
  3243   003C9C                     l596:
  3244   003C9C  C501  F501         	movff	___llmod@dividend,?___llmod
  3245   003CA0  C502  F502         	movff	___llmod@dividend+1,?___llmod+1
  3246   003CA4  C503  F503         	movff	___llmod@dividend+2,?___llmod+2
  3247   003CA8  C504  F504         	movff	___llmod@dividend+3,?___llmod+3
  3248   003CAC  0012               	return		;funcret
  3249   003CAE                     __end_of___llmod:
  3250                           	callstack 0
  3251                           
  3252 ;; *************** function ___lldiv *****************
  3253 ;; Defined at:
  3254 ;;		line 7 in file "C:\Program Files\Microchip\xc8\v3.00\pic\sources\c99\common\__lldiv.c"
  3255 ;; Parameters:    Size  Location     Type
  3256 ;;  dividend        4    0[COMRAM] unsigned long 
  3257 ;;  divisor         4    4[COMRAM] unsigned long 
  3258 ;; Auto vars:     Size  Location     Type
  3259 ;;  quotient        4    8[COMRAM] unsigned long 
  3260 ;;  counter         1   12[COMRAM] unsigned char 
  3261 ;; Return value:  Size  Location     Type
  3262 ;;                  4    0[COMRAM] unsigned long 
  3263 ;; Registers used:
  3264 ;;		wreg, status,2, status,0
  3265 ;; Tracked objects:
  3266 ;;		On entry : 0/0
  3267 ;;		On exit  : 0/0
  3268 ;;		Unchanged: 0/0
  3269 ;; Data sizes:     COMRAM   BANK5   BANK6   BANK7   BANK8   BANK9  BANK10  BANK11  BANK12  BANK13  BANK14  BANK15  BANK1
      +6  BANK17  BANK18  BANK19  BANK20  BANK21  BANK22  BANK23  BANK24  BANK25  BANK26  BANK27  BANK28  BANK29  BANK30  BANK3
      +1  BANK32  BANK33  BANK34  BANK35  BANK36
  3270 ;;      Params:         8       0       0       0       0       0       0       0       0       0       0       0       
      +0       0       0       0       0       0       0       0       0       0       0       0       0       0       0       
      +0       0       0       0       0       0
  3271 ;;      Locals:         5       0       0       0       0       0       0       0       0       0       0       0       
      +0       0       0       0       0       0       0       0       0       0       0       0       0       0       0       
      +0       0       0       0       0       0
  3272 ;;      Temps:          0       0       0       0       0       0       0       0       0       0       0       0       
      +0       0       0       0       0       0       0       0       0       0       0       0       0       0       0       
      +0       0       0       0       0       0
  3273 ;;      Totals:        13       0       0       0       0       0       0       0       0       0       0       0       
      +0       0       0       0       0       0       0       0       0       0       0       0       0       0       0       
      +0       0       0       0       0       0
  3274 ;;Total ram usage:       13 bytes
  3275 ;; Hardware stack levels used: 1
  3276 ;; Hardware stack levels required when called: 1
  3277 ;; This function calls:
  3278 ;;		Nothing
  3279 ;; This function is called by:
  3280 ;;		_updateDisplay
  3281 ;;		_vfpfcnvrt
  3282 ;; This function uses a non-reentrant model
  3283 ;;
  3284                           
  3285                           	psect	text9
  3286   003B82                     __ptext9:
  3287                           	callstack 0
  3288   003B82                     ___lldiv:
  3289                           	callstack 121
  3290   003B82  0E00               	movlw	0
  3291   003B84  6E09               	movwf	___lldiv@quotient^(0+1280),c
  3292   003B86  0E00               	movlw	0
  3293   003B88  6E0A               	movwf	(___lldiv@quotient+1)^(0+1280),c
  3294   003B8A  0E00               	movlw	0
  3295   003B8C  6E0B               	movwf	(___lldiv@quotient+2)^(0+1280),c
  3296   003B8E  0E00               	movlw	0
  3297   003B90  6E0C               	movwf	(___lldiv@quotient+3)^(0+1280),c
  3298   003B92  5005               	movf	___lldiv@divisor^(0+1280),w,c
  3299   003B94  1006               	iorwf	(___lldiv@divisor+1)^(0+1280),w,c
  3300   003B96  1007               	iorwf	(___lldiv@divisor+2)^(0+1280),w,c
  3301   003B98  1008               	iorwf	(___lldiv@divisor+3)^(0+1280),w,c
  3302   003B9A  B4D8               	btfsc	status,2,c
  3303   003B9C  EFD2  F01D         	goto	u811
  3304   003BA0  EFD4  F01D         	goto	u810
  3305   003BA4                     u811:
  3306   003BA4  EF0A  F01E         	goto	l203
  3307   003BA8                     u810:
  3308   003BA8  0E01               	movlw	1
  3309   003BAA  6E0D               	movwf	___lldiv@counter^(0+1280),c
  3310   003BAC  EFDE  F01D         	goto	l1413
  3311   003BB0                     l1411:
  3312   003BB0  90D8               	bcf	status,0,c
  3313   003BB2  3605               	rlcf	___lldiv@divisor^(0+1280),f,c
  3314   003BB4  3606               	rlcf	(___lldiv@divisor+1)^(0+1280),f,c
  3315   003BB6  3607               	rlcf	(___lldiv@divisor+2)^(0+1280),f,c
  3316   003BB8  3608               	rlcf	(___lldiv@divisor+3)^(0+1280),f,c
  3317   003BBA  2A0D               	incf	___lldiv@counter^(0+1280),f,c
  3318   003BBC                     l1413:
  3319   003BBC  AE08               	btfss	(___lldiv@divisor+3)^(0+1280),7,c
  3320   003BBE  EFE3  F01D         	goto	u821
  3321   003BC2  EFE5  F01D         	goto	u820
  3322   003BC6                     u821:
  3323   003BC6  EFD8  F01D         	goto	l1411
  3324   003BCA                     u820:
  3325   003BCA                     l1415:
  3326   003BCA  90D8               	bcf	status,0,c
  3327   003BCC  3609               	rlcf	___lldiv@quotient^(0+1280),f,c
  3328   003BCE  360A               	rlcf	(___lldiv@quotient+1)^(0+1280),f,c
  3329   003BD0  360B               	rlcf	(___lldiv@quotient+2)^(0+1280),f,c
  3330   003BD2  360C               	rlcf	(___lldiv@quotient+3)^(0+1280),f,c
  3331   003BD4  5005               	movf	___lldiv@divisor^(0+1280),w,c
  3332   003BD6  5C01               	subwf	___lldiv@dividend^(0+1280),w,c
  3333   003BD8  5006               	movf	(___lldiv@divisor+1)^(0+1280),w,c
  3334   003BDA  5802               	subwfb	(___lldiv@dividend+1)^(0+1280),w,c
  3335   003BDC  5007               	movf	(___lldiv@divisor+2)^(0+1280),w,c
  3336   003BDE  5803               	subwfb	(___lldiv@dividend+2)^(0+1280),w,c
  3337   003BE0  5008               	movf	(___lldiv@divisor+3)^(0+1280),w,c
  3338   003BE2  5804               	subwfb	(___lldiv@dividend+3)^(0+1280),w,c
  3339   003BE4  A0D8               	btfss	status,0,c
  3340   003BE6  EFF7  F01D         	goto	u831
  3341   003BEA  EFF9  F01D         	goto	u830
  3342   003BEE                     u831:
  3343   003BEE  EF02  F01E         	goto	l1423
  3344   003BF2                     u830:
  3345   003BF2  5005               	movf	___lldiv@divisor^(0+1280),w,c
  3346   003BF4  5E01               	subwf	___lldiv@dividend^(0+1280),f,c
  3347   003BF6  5006               	movf	(___lldiv@divisor+1)^(0+1280),w,c
  3348   003BF8  5A02               	subwfb	(___lldiv@dividend+1)^(0+1280),f,c
  3349   003BFA  5007               	movf	(___lldiv@divisor+2)^(0+1280),w,c
  3350   003BFC  5A03               	subwfb	(___lldiv@dividend+2)^(0+1280),f,c
  3351   003BFE  5008               	movf	(___lldiv@divisor+3)^(0+1280),w,c
  3352   003C00  5A04               	subwfb	(___lldiv@dividend+3)^(0+1280),f,c
  3353   003C02  8009               	bsf	___lldiv@quotient^(0+1280),0,c
  3354   003C04                     l1423:
  3355   003C04  90D8               	bcf	status,0,c
  3356   003C06  3208               	rrcf	(___lldiv@divisor+3)^(0+1280),f,c
  3357   003C08  3207               	rrcf	(___lldiv@divisor+2)^(0+1280),f,c
  3358   003C0A  3206               	rrcf	(___lldiv@divisor+1)^(0+1280),f,c
  3359   003C0C  3205               	rrcf	___lldiv@divisor^(0+1280),f,c
  3360   003C0E  2E0D               	decfsz	___lldiv@counter^(0+1280),f,c
  3361   003C10  EFE5  F01D         	goto	l1415
  3362   003C14                     l203:
  3363   003C14  C509  F501         	movff	___lldiv@quotient,?___lldiv
  3364   003C18  C50A  F502         	movff	___lldiv@quotient+1,?___lldiv+1
  3365   003C1C  C50B  F503         	movff	___lldiv@quotient+2,?___lldiv+2
  3366   003C20  C50C  F504         	movff	___lldiv@quotient+3,?___lldiv+3
  3367   003C24  0012               	return		;funcret
  3368   003C26                     __end_of___lldiv:
  3369                           	callstack 0
  3370                           
  3371 ;; *************** function _lcdPrint *****************
  3372 ;; Defined at:
  3373 ;;		line 231 in file "main.c"
  3374 ;; Parameters:    Size  Location     Type
  3375 ;;  str             2    3[COMRAM] PTR const unsigned char 
  3376 ;;		 -> displayBuffer(32), 
  3377 ;; Auto vars:     Size  Location     Type
  3378 ;;		None
  3379 ;; Return value:  Size  Location     Type
  3380 ;;                  1    wreg      void 
  3381 ;; Registers used:
  3382 ;;		wreg, fsr2l, fsr2h, status,2, status,0, cstack
  3383 ;; Tracked objects:
  3384 ;;		On entry : 0/0
  3385 ;;		On exit  : 0/0
  3386 ;;		Unchanged: 0/0
  3387 ;; Data sizes:     COMRAM   BANK5   BANK6   BANK7   BANK8   BANK9  BANK10  BANK11  BANK12  BANK13  BANK14  BANK15  BANK1
      +6  BANK17  BANK18  BANK19  BANK20  BANK21  BANK22  BANK23  BANK24  BANK25  BANK26  BANK27  BANK28  BANK29  BANK30  BANK3
      +1  BANK32  BANK33  BANK34  BANK35  BANK36
  3388 ;;      Params:         2       0       0       0       0       0       0       0       0       0       0       0       
      +0       0       0       0       0       0       0       0       0       0       0       0       0       0       0       
      +0       0       0       0       0       0
  3389 ;;      Locals:         0       0       0       0       0       0       0       0       0       0       0       0       
      +0       0       0       0       0       0       0       0       0       0       0       0       0       0       0       
      +0       0       0       0       0       0
  3390 ;;      Temps:          0       0       0       0       0       0       0       0       0       0       0       0       
      +0       0       0       0       0       0       0       0       0       0       0       0       0       0       0       
      +0       0       0       0       0       0
  3391 ;;      Totals:         2       0       0       0       0       0       0       0       0       0       0       0       
      +0       0       0       0       0       0       0       0       0       0       0       0       0       0       0       
      +0       0       0       0       0       0
  3392 ;;Total ram usage:        2 bytes
  3393 ;; Hardware stack levels used: 1
  3394 ;; Hardware stack levels required when called: 2
  3395 ;; This function calls:
  3396 ;;		_lcdWriteData
  3397 ;; This function is called by:
  3398 ;;		_updateDisplay
  3399 ;; This function uses a non-reentrant model
  3400 ;;
  3401                           
  3402                           	psect	text10
  3403   003F08                     __ptext10:
  3404                           	callstack 0
  3405   003F08                     _lcdPrint:
  3406                           	callstack 123
  3407   003F08                     
  3408                           ;main.c: 232:     while(*str) {
  3409   003F08  EF8F  F01F         	goto	l1585
  3410   003F0C                     l1581:
  3411                           
  3412                           ;main.c: 233:         lcdWriteData(*str++);
  3413   003F0C  C504  F4D9         	movff	lcdPrint@str,fsr2l
  3414   003F10  C505  F4DA         	movff	lcdPrint@str+1,fsr2h
  3415   003F14  50DF               	movf	indf2,w,c
  3416   003F16  ECD2  F01B         	call	_lcdWriteData
  3417   003F1A  4A04               	infsnz	lcdPrint@str^(0+1280),f,c
  3418   003F1C  2A05               	incf	(lcdPrint@str+1)^(0+1280),f,c
  3419   003F1E                     l1585:
  3420                           
  3421                           ;main.c: 232:     while(*str) {
  3422   003F1E  C504  F4D9         	movff	lcdPrint@str,fsr2l
  3423   003F22  C505  F4DA         	movff	lcdPrint@str+1,fsr2h
  3424   003F26  50DF               	movf	indf2,w,c
  3425   003F28  A4D8               	btfss	status,2,c
  3426   003F2A  EF99  F01F         	goto	u1091
  3427   003F2E  EF9B  F01F         	goto	u1090
  3428   003F32                     u1091:
  3429   003F32  EF86  F01F         	goto	l1581
  3430   003F36                     u1090:
  3431   003F36  0012               	return		;funcret
  3432   003F38                     __end_of_lcdPrint:
  3433                           	callstack 0
  3434                           
  3435 ;; *************** function _lcdWriteData *****************
  3436 ;; Defined at:
  3437 ;;		line 213 in file "main.c"
  3438 ;; Parameters:    Size  Location     Type
  3439 ;;  data            1    wreg     unsigned char 
  3440 ;; Auto vars:     Size  Location     Type
  3441 ;;  data            1    2[COMRAM] unsigned char 
  3442 ;; Return value:  Size  Location     Type
  3443 ;;                  1    wreg      void 
  3444 ;; Registers used:
  3445 ;;		wreg, status,2, status,0
  3446 ;; Tracked objects:
  3447 ;;		On entry : 0/0
  3448 ;;		On exit  : 0/0
  3449 ;;		Unchanged: 0/0
  3450 ;; Data sizes:     COMRAM   BANK5   BANK6   BANK7   BANK8   BANK9  BANK10  BANK11  BANK12  BANK13  BANK14  BANK15  BANK1
      +6  BANK17  BANK18  BANK19  BANK20  BANK21  BANK22  BANK23  BANK24  BANK25  BANK26  BANK27  BANK28  BANK29  BANK30  BANK3
      +1  BANK32  BANK33  BANK34  BANK35  BANK36
  3451 ;;      Params:         0       0       0       0       0       0       0       0       0       0       0       0       
      +0       0       0       0       0       0       0       0       0       0       0       0       0       0       0       
      +0       0       0       0       0       0
  3452 ;;      Locals:         1       0       0       0       0       0       0       0       0       0       0       0       
      +0       0       0       0       0       0       0       0       0       0       0       0       0       0       0       
      +0       0       0       0       0       0
  3453 ;;      Temps:          2       0       0       0       0       0       0       0       0       0       0       0       
      +0       0       0       0       0       0       0       0       0       0       0       0       0       0       0       
      +0       0       0       0       0       0
  3454 ;;      Totals:         3       0       0       0       0       0       0       0       0       0       0       0       
      +0       0       0       0       0       0       0       0       0       0       0       0       0       0       0       
      +0       0       0       0       0       0
  3455 ;;Total ram usage:        3 bytes
  3456 ;; Hardware stack levels used: 1
  3457 ;; Hardware stack levels required when called: 1
  3458 ;; This function calls:
  3459 ;;		Nothing
  3460 ;; This function is called by:
  3461 ;;		_lcdPrint
  3462 ;; This function uses a non-reentrant model
  3463 ;;
  3464                           
  3465                           	psect	text11
  3466   0037A4                     __ptext11:
  3467                           	callstack 0
  3468   0037A4                     _lcdWriteData:
  3469                           	callstack 123
  3470                           
  3471                           ;incstack = 0
  3472                           ;lcdWriteData@data stored from wreg
  3473   0037A4  6E03               	movwf	lcdWriteData@data^(0+1280),c
  3474   0037A6                     
  3475                           ;main.c: 214:     LATCbits.LATC0 = 1;
  3476   0037A6  80C0               	bsf	192,0,c	;volatile
  3477   0037A8                     
  3478                           ;main.c: 215:     LATCbits.LATC2 = (data >> 0) & 0x01;
  3479   0037A8  C503  F501         	movff	lcdWriteData@data,??_lcdWriteData
  3480   0037AC  0E01               	movlw	1
  3481   0037AE  1601               	andwf	??_lcdWriteData^(0+1280),f,c
  3482   0037B0  4601               	rlncf	??_lcdWriteData^(0+1280),f,c
  3483   0037B2  4601               	rlncf	??_lcdWriteData^(0+1280),f,c
  3484   0037B4  50C0               	movf	192,w,c	;volatile
  3485   0037B6  1801               	xorwf	??_lcdWriteData^(0+1280),w,c
  3486   0037B8  0BFB               	andlw	-5
  3487   0037BA  1801               	xorwf	??_lcdWriteData^(0+1280),w,c
  3488   0037BC  6EC0               	movwf	192,c	;volatile
  3489                           
  3490                           ;main.c: 216:     LATCbits.LATC3 = (data >> 1) & 0x01;
  3491   0037BE  C503  F501         	movff	lcdWriteData@data,??_lcdWriteData
  3492   0037C2  90D8               	bcf	status,0,c
  3493   0037C4  3201               	rrcf	??_lcdWriteData^(0+1280),f,c
  3494   0037C6  0E01               	movlw	1
  3495   0037C8  1601               	andwf	??_lcdWriteData^(0+1280),f,c
  3496   0037CA  4601               	rlncf	??_lcdWriteData^(0+1280),f,c
  3497   0037CC  4601               	rlncf	??_lcdWriteData^(0+1280),f,c
  3498   0037CE  4601               	rlncf	??_lcdWriteData^(0+1280),f,c
  3499   0037D0  50C0               	movf	192,w,c	;volatile
  3500   0037D2  1801               	xorwf	??_lcdWriteData^(0+1280),w,c
  3501   0037D4  0BF7               	andlw	-9
  3502   0037D6  1801               	xorwf	??_lcdWriteData^(0+1280),w,c
  3503   0037D8  6EC0               	movwf	192,c	;volatile
  3504                           
  3505                           ;main.c: 217:     LATCbits.LATC4 = (data >> 2) & 0x01;
  3506   0037DA  C503  F501         	movff	lcdWriteData@data,??_lcdWriteData
  3507   0037DE  90D8               	bcf	status,0,c
  3508   0037E0  3201               	rrcf	??_lcdWriteData^(0+1280),f,c
  3509   0037E2  90D8               	bcf	status,0,c
  3510   0037E4  3201               	rrcf	??_lcdWriteData^(0+1280),f,c
  3511   0037E6  0E01               	movlw	1
  3512   0037E8  1601               	andwf	??_lcdWriteData^(0+1280),f,c
  3513   0037EA  3A01               	swapf	??_lcdWriteData^(0+1280),f,c
  3514   0037EC  50C0               	movf	192,w,c	;volatile
  3515   0037EE  1801               	xorwf	??_lcdWriteData^(0+1280),w,c
  3516   0037F0  0BEF               	andlw	-17
  3517   0037F2  1801               	xorwf	??_lcdWriteData^(0+1280),w,c
  3518   0037F4  6EC0               	movwf	192,c	;volatile
  3519                           
  3520                           ;main.c: 218:     LATCbits.LATC5 = (data >> 3) & 0x01;
  3521   0037F6  C503  F501         	movff	lcdWriteData@data,??_lcdWriteData
  3522   0037FA  90D8               	bcf	status,0,c
  3523   0037FC  3201               	rrcf	??_lcdWriteData^(0+1280),f,c
  3524   0037FE  90D8               	bcf	status,0,c
  3525   003800  3201               	rrcf	??_lcdWriteData^(0+1280),f,c
  3526   003802  90D8               	bcf	status,0,c
  3527   003804  3201               	rrcf	??_lcdWriteData^(0+1280),f,c
  3528   003806  0E01               	movlw	1
  3529   003808  1601               	andwf	??_lcdWriteData^(0+1280),f,c
  3530   00380A  3A01               	swapf	??_lcdWriteData^(0+1280),f,c
  3531   00380C  4601               	rlncf	??_lcdWriteData^(0+1280),f,c
  3532   00380E  50C0               	movf	192,w,c	;volatile
  3533   003810  1801               	xorwf	??_lcdWriteData^(0+1280),w,c
  3534   003812  0BDF               	andlw	-33
  3535   003814  1801               	xorwf	??_lcdWriteData^(0+1280),w,c
  3536   003816  6EC0               	movwf	192,c	;volatile
  3537                           
  3538                           ;main.c: 219:     LATCbits.LATC6 = (data >> 4) & 0x01;
  3539   003818  C503  F501         	movff	lcdWriteData@data,??_lcdWriteData
  3540   00381C  3A01               	swapf	??_lcdWriteData^(0+1280),f,c
  3541   00381E  0E0F               	movlw	15
  3542   003820  1601               	andwf	??_lcdWriteData^(0+1280),f,c
  3543   003822  0E01               	movlw	1
  3544   003824  1601               	andwf	??_lcdWriteData^(0+1280),f,c
  3545   003826  3A01               	swapf	??_lcdWriteData^(0+1280),f,c
  3546   003828  4601               	rlncf	??_lcdWriteData^(0+1280),f,c
  3547   00382A  4601               	rlncf	??_lcdWriteData^(0+1280),f,c
  3548   00382C  50C0               	movf	192,w,c	;volatile
  3549   00382E  1801               	xorwf	??_lcdWriteData^(0+1280),w,c
  3550   003830  0BBF               	andlw	-65
  3551   003832  1801               	xorwf	??_lcdWriteData^(0+1280),w,c
  3552   003834  6EC0               	movwf	192,c	;volatile
  3553                           
  3554                           ;main.c: 220:     LATCbits.LATC7 = (data >> 5) & 0x01;
  3555   003836  C503  F501         	movff	lcdWriteData@data,??_lcdWriteData
  3556   00383A  0E05               	movlw	5
  3557   00383C  6E02               	movwf	(??_lcdWriteData+1)^(0+1280),c
  3558   00383E                     u1025:
  3559   00383E  90D8               	bcf	status,0,c
  3560   003840  3201               	rrcf	??_lcdWriteData^(0+1280),f,c
  3561   003842  2E02               	decfsz	(??_lcdWriteData+1)^(0+1280),f,c
  3562   003844  EF1F  F01C         	goto	u1025
  3563   003848  0E01               	movlw	1
  3564   00384A  1601               	andwf	??_lcdWriteData^(0+1280),f,c
  3565   00384C  3201               	rrcf	??_lcdWriteData^(0+1280),f,c
  3566   00384E  3201               	rrcf	??_lcdWriteData^(0+1280),f,c
  3567   003850  50C0               	movf	192,w,c	;volatile
  3568   003852  1801               	xorwf	??_lcdWriteData^(0+1280),w,c
  3569   003854  0B7F               	andlw	-129
  3570   003856  1801               	xorwf	??_lcdWriteData^(0+1280),w,c
  3571   003858  6EC0               	movwf	192,c	;volatile
  3572                           
  3573                           ;main.c: 221:     LATDbits.LATD0 = (data >> 6) & 0x01;
  3574   00385A  C503  F501         	movff	lcdWriteData@data,??_lcdWriteData
  3575   00385E  0E06               	movlw	6
  3576   003860  6E02               	movwf	(??_lcdWriteData+1)^(0+1280),c
  3577   003862                     u1035:
  3578   003862  90D8               	bcf	status,0,c
  3579   003864  3201               	rrcf	??_lcdWriteData^(0+1280),f,c
  3580   003866  2E02               	decfsz	(??_lcdWriteData+1)^(0+1280),f,c
  3581   003868  EF31  F01C         	goto	u1035
  3582   00386C  0E01               	movlw	1
  3583   00386E  1601               	andwf	??_lcdWriteData^(0+1280),f,c
  3584   003870  50C1               	movf	193,w,c	;volatile
  3585   003872  1801               	xorwf	??_lcdWriteData^(0+1280),w,c
  3586   003874  0BFE               	andlw	-2
  3587   003876  1801               	xorwf	??_lcdWriteData^(0+1280),w,c
  3588   003878  6EC1               	movwf	193,c	;volatile
  3589                           
  3590                           ;main.c: 222:     LATDbits.LATD1 = (data >> 7) & 0x01;
  3591   00387A  6A01               	clrf	??_lcdWriteData^(0+1280),c
  3592   00387C  AE03               	btfss	lcdWriteData@data^(0+1280),7,c
  3593   00387E  D001               	bra	u1045
  3594   003880  2A01               	incf	??_lcdWriteData^(0+1280),f,c
  3595   003882                     u1045:
  3596   003882  0E01               	movlw	1
  3597   003884  1601               	andwf	??_lcdWriteData^(0+1280),f,c
  3598   003886  4601               	rlncf	??_lcdWriteData^(0+1280),f,c
  3599   003888  50C1               	movf	193,w,c	;volatile
  3600   00388A  1801               	xorwf	??_lcdWriteData^(0+1280),w,c
  3601   00388C  0BFD               	andlw	-3
  3602   00388E  1801               	xorwf	??_lcdWriteData^(0+1280),w,c
  3603   003890  6EC1               	movwf	193,c	;volatile
  3604   003892                     
  3605                           ;main.c: 224:     LATCbits.LATC1 = 1;
  3606   003892  82C0               	bsf	192,1,c	;volatile
  3607   003894                     
  3608                           ;main.c: 225:     _delay((unsigned long)((1)*(64000000UL/4000000.0)));
  3609   003894  0E05               	movlw	5
  3610   003896                     u1627:
  3611   003896  2EE8               	decfsz	wreg,f,c
  3612   003898  D7FE               	bra	u1627
  3613   00389A  0000               	nop	
  3614   00389C                     
  3615                           ;main.c: 226:     LATCbits.LATC1 = 0;
  3616   00389C  92C0               	bcf	192,1,c	;volatile
  3617   00389E                     
  3618                           ;main.c: 227:     _delay((unsigned long)((100)*(64000000UL/4000000.0)));
  3619   00389E  0EE4               	movlw	228
  3620   0038A0                     u1637:
  3621   0038A0  D000               	nop2	
  3622   0038A2  D000               	nop2	
  3623   0038A4  2EE8               	decfsz	wreg,f,c
  3624   0038A6  D7FC               	bra	u1637
  3625   0038A8  D000               	nop2	
  3626   0038AA  D000               	nop2	
  3627   0038AC  0012               	return		;funcret
  3628   0038AE                     __end_of_lcdWriteData:
  3629                           	callstack 0
  3630                           
  3631 ;; *************** function _systemInit *****************
  3632 ;; Defined at:
  3633 ;;		line 145 in file "main.c"
  3634 ;; Parameters:    Size  Location     Type
  3635 ;;		None
  3636 ;; Auto vars:     Size  Location     Type
  3637 ;;		None
  3638 ;; Return value:  Size  Location     Type
  3639 ;;                  1    wreg      void 
  3640 ;; Registers used:
  3641 ;;		wreg, status,2, status,0
  3642 ;; Tracked objects:
  3643 ;;		On entry : 0/0
  3644 ;;		On exit  : 0/0
  3645 ;;		Unchanged: 0/0
  3646 ;; Data sizes:     COMRAM   BANK5   BANK6   BANK7   BANK8   BANK9  BANK10  BANK11  BANK12  BANK13  BANK14  BANK15  BANK1
      +6  BANK17  BANK18  BANK19  BANK20  BANK21  BANK22  BANK23  BANK24  BANK25  BANK26  BANK27  BANK28  BANK29  BANK30  BANK3
      +1  BANK32  BANK33  BANK34  BANK35  BANK36
  3647 ;;      Params:         0       0       0       0       0       0       0       0       0       0       0       0       
      +0       0       0       0       0       0       0       0       0       0       0       0       0       0       0       
      +0       0       0       0       0       0
  3648 ;;      Locals:         0       0       0       0       0       0       0       0       0       0       0       0       
      +0       0       0       0       0       0       0       0       0       0       0       0       0       0       0       
      +0       0       0       0       0       0
  3649 ;;      Temps:          0       0       0       0       0       0       0       0       0       0       0       0       
      +0       0       0       0       0       0       0       0       0       0       0       0       0       0       0       
      +0       0       0       0       0       0
  3650 ;;      Totals:         0       0       0       0       0       0       0       0       0       0       0       0       
      +0       0       0       0       0       0       0       0       0       0       0       0       0       0       0       
      +0       0       0       0       0       0
  3651 ;;Total ram usage:        0 bytes
  3652 ;; Hardware stack levels used: 1
  3653 ;; Hardware stack levels required when called: 1
  3654 ;; This function calls:
  3655 ;;		Nothing
  3656 ;; This function is called by:
  3657 ;;		_main
  3658 ;; This function uses a non-reentrant model
  3659 ;;
  3660                           
  3661                           	psect	text12
  3662   003F38                     __ptext12:
  3663                           	callstack 0
  3664   003F38                     _systemInit:
  3665                           	callstack 125
  3666   003F38                     
  3667                           ;main.c: 147:     OSCCON1 = 0x60;
  3668   003F38  0E60               	movlw	96
  3669   003F3A  0100               	movlb	0	; () banked
  3670   003F3C  6FAD               	movwf	173,b	;volatile
  3671   003F3E                     
  3672                           ; BSR set to: 0
  3673                           ;main.c: 150:     TRISC = 0x00;
  3674   003F3E  6AC8               	clrf	200,c	;volatile
  3675   003F40                     
  3676                           ; BSR set to: 0
  3677                           ;main.c: 151:     TRISD = 0x00;
  3678   003F40  6AC9               	clrf	201,c	;volatile
  3679                           
  3680                           ;main.c: 152:     TRISB = 0x0F;
  3681   003F42  0E0F               	movlw	15
  3682   003F44  6EC7               	movwf	199,c	;volatile
  3683                           
  3684                           ;main.c: 153:     TRISA = 0x01;
  3685   003F46  0E01               	movlw	1
  3686   003F48  6EC6               	movwf	198,c	;volatile
  3687   003F4A                     
  3688                           ; BSR set to: 0
  3689                           ;main.c: 156:     ANSELB = 0x00;
  3690   003F4A  0104               	movlb	4	; () banked
  3691   003F4C  6B08               	clrf	8,b	;volatile
  3692   003F4E                     
  3693                           ; BSR set to: 4
  3694                           ;main.c: 157:     ANSELA = 0x00;
  3695   003F4E  6B00               	clrf	0,b	;volatile
  3696   003F50                     
  3697                           ; BSR set to: 4
  3698                           ;main.c: 160:     T2CON = 0x00;
  3699   003F50  0103               	movlb	3	; () banked
  3700   003F52  6B24               	clrf	36,b	;volatile
  3701                           
  3702                           ;main.c: 161:     PR2 = 63;
  3703   003F54  0E3F               	movlw	63
  3704   003F56  6F23               	movwf	35,b	;volatile
  3705   003F58                     
  3706                           ; BSR set to: 3
  3707                           ;main.c: 162:     PIE2 |= (1 << 1);
  3708   003F58  82A0               	bsf	160,1,c	;volatile
  3709   003F5A                     
  3710                           ; BSR set to: 3
  3711                           ;main.c: 163:     INTCON0bits.GIE = 1;
  3712   003F5A  8ED6               	bsf	214,7,c	;volatile
  3713   003F5C                     
  3714                           ; BSR set to: 3
  3715                           ;main.c: 164:     INTCON0bits.IPEN = 1;
  3716   003F5C  8AD6               	bsf	214,5,c	;volatile
  3717   003F5E                     
  3718                           ; BSR set to: 3
  3719   003F5E  0012               	return		;funcret
  3720   003F60                     __end_of_systemInit:
  3721                           	callstack 0
  3722                           
  3723 ;; *************** function _lcdInit *****************
  3724 ;; Defined at:
  3725 ;;		line 168 in file "main.c"
  3726 ;; Parameters:    Size  Location     Type
  3727 ;;		None
  3728 ;; Auto vars:     Size  Location     Type
  3729 ;;		None
  3730 ;; Return value:  Size  Location     Type
  3731 ;;                  1    wreg      void 
  3732 ;; Registers used:
  3733 ;;		wreg, status,2, status,0, cstack
  3734 ;; Tracked objects:
  3735 ;;		On entry : 0/0
  3736 ;;		On exit  : 0/0
  3737 ;;		Unchanged: 0/0
  3738 ;; Data sizes:     COMRAM   BANK5   BANK6   BANK7   BANK8   BANK9  BANK10  BANK11  BANK12  BANK13  BANK14  BANK15  BANK1
      +6  BANK17  BANK18  BANK19  BANK20  BANK21  BANK22  BANK23  BANK24  BANK25  BANK26  BANK27  BANK28  BANK29  BANK30  BANK3
      +1  BANK32  BANK33  BANK34  BANK35  BANK36
  3739 ;;      Params:         0       0       0       0       0       0       0       0       0       0       0       0       
      +0       0       0       0       0       0       0       0       0       0       0       0       0       0       0       
      +0       0       0       0       0       0
  3740 ;;      Locals:         0       0       0       0       0       0       0       0       0       0       0       0       
      +0       0       0       0       0       0       0       0       0       0       0       0       0       0       0       
      +0       0       0       0       0       0
  3741 ;;      Temps:          2       0       0       0       0       0       0       0       0       0       0       0       
      +0       0       0       0       0       0       0       0       0       0       0       0       0       0       0       
      +0       0       0       0       0       0
  3742 ;;      Totals:         2       0       0       0       0       0       0       0       0       0       0       0       
      +0       0       0       0       0       0       0       0       0       0       0       0       0       0       0       
      +0       0       0       0       0       0
  3743 ;;Total ram usage:        2 bytes
  3744 ;; Hardware stack levels used: 1
  3745 ;; Hardware stack levels required when called: 2
  3746 ;; This function calls:
  3747 ;;		_lcdWriteCmd
  3748 ;; This function is called by:
  3749 ;;		_main
  3750 ;; This function uses a non-reentrant model
  3751 ;;
  3752                           
  3753                           	psect	text13
  3754   003D88                     __ptext13:
  3755                           	callstack 0
  3756   003D88                     _lcdInit:
  3757                           	callstack 124
  3758   003D88                     
  3759                           ;main.c: 169:     _delay((unsigned long)((50)*(64000000UL/4000.0)));
  3760   003D88  0E05               	movlw	5
  3761   003D8A  6E05               	movwf	(??_lcdInit+1)^(0+1280),c
  3762   003D8C  0E0F               	movlw	15
  3763   003D8E  6E04               	movwf	??_lcdInit^(0+1280),c
  3764   003D90  0EF1               	movlw	241
  3765   003D92                     u1647:
  3766   003D92  2EE8               	decfsz	wreg,f,c
  3767   003D94  D7FE               	bra	u1647
  3768   003D96  2E04               	decfsz	??_lcdInit^(0+1280),f,c
  3769   003D98  D7FC               	bra	u1647
  3770   003D9A  2E05               	decfsz	(??_lcdInit+1)^(0+1280),f,c
  3771   003D9C  D7FA               	bra	u1647
  3772   003D9E  0000               	nop	
  3773   003DA0                     
  3774                           ;main.c: 172:     lcdWriteCmd(0x30);
  3775   003DA0  0E30               	movlw	48
  3776   003DA2  EC57  F01C         	call	_lcdWriteCmd
  3777   003DA6                     
  3778                           ;main.c: 173:     _delay((unsigned long)((5)*(64000000UL/4000.0)));
  3779   003DA6  0E68               	movlw	104
  3780   003DA8  6E04               	movwf	??_lcdInit^(0+1280),c
  3781   003DAA  0EE4               	movlw	228
  3782   003DAC                     u1657:
  3783   003DAC  2EE8               	decfsz	wreg,f,c
  3784   003DAE  D7FE               	bra	u1657
  3785   003DB0  2E04               	decfsz	??_lcdInit^(0+1280),f,c
  3786   003DB2  D7FC               	bra	u1657
  3787   003DB4  D000               	nop2	
  3788                           
  3789                           ;main.c: 174:     lcdWriteCmd(0x30);
  3790   003DB6  0E30               	movlw	48
  3791   003DB8  EC57  F01C         	call	_lcdWriteCmd
  3792   003DBC                     
  3793                           ;main.c: 175:     _delay((unsigned long)((100)*(64000000UL/4000000.0)));
  3794   003DBC  0EE4               	movlw	228
  3795   003DBE                     u1667:
  3796   003DBE  D000               	nop2	
  3797   003DC0  D000               	nop2	
  3798   003DC2  2EE8               	decfsz	wreg,f,c
  3799   003DC4  D7FC               	bra	u1667
  3800   003DC6  D000               	nop2	
  3801   003DC8  D000               	nop2	
  3802   003DCA                     
  3803                           ;main.c: 176:     lcdWriteCmd(0x30);
  3804   003DCA  0E30               	movlw	48
  3805   003DCC  EC57  F01C         	call	_lcdWriteCmd
  3806   003DD0                     
  3807                           ;main.c: 179:     lcdWriteCmd(0x38);
  3808   003DD0  0E38               	movlw	56
  3809   003DD2  EC57  F01C         	call	_lcdWriteCmd
  3810   003DD6                     
  3811                           ;main.c: 182:     lcdWriteCmd(0x08);
  3812   003DD6  0E08               	movlw	8
  3813   003DD8  EC57  F01C         	call	_lcdWriteCmd
  3814   003DDC                     
  3815                           ;main.c: 185:     lcdWriteCmd(0x01);
  3816   003DDC  0E01               	movlw	1
  3817   003DDE  EC57  F01C         	call	_lcdWriteCmd
  3818   003DE2                     
  3819                           ;main.c: 188:     lcdWriteCmd(0x06);
  3820   003DE2  0E06               	movlw	6
  3821   003DE4  EC57  F01C         	call	_lcdWriteCmd
  3822   003DE8                     
  3823                           ;main.c: 191:     lcdWriteCmd(0x0C);
  3824   003DE8  0E0C               	movlw	12
  3825   003DEA  EC57  F01C         	call	_lcdWriteCmd
  3826   003DEE  0012               	return		;funcret
  3827   003DF0                     __end_of_lcdInit:
  3828                           	callstack 0
  3829                           
  3830 ;; *************** function _lcdWriteCmd *****************
  3831 ;; Defined at:
  3832 ;;		line 195 in file "main.c"
  3833 ;; Parameters:    Size  Location     Type
  3834 ;;  cmd             1    wreg     unsigned char 
  3835 ;; Auto vars:     Size  Location     Type
  3836 ;;  cmd             1    2[COMRAM] unsigned char 
  3837 ;; Return value:  Size  Location     Type
  3838 ;;                  1    wreg      void 
  3839 ;; Registers used:
  3840 ;;		wreg, status,2, status,0
  3841 ;; Tracked objects:
  3842 ;;		On entry : 0/0
  3843 ;;		On exit  : 0/0
  3844 ;;		Unchanged: 0/0
  3845 ;; Data sizes:     COMRAM   BANK5   BANK6   BANK7   BANK8   BANK9  BANK10  BANK11  BANK12  BANK13  BANK14  BANK15  BANK1
      +6  BANK17  BANK18  BANK19  BANK20  BANK21  BANK22  BANK23  BANK24  BANK25  BANK26  BANK27  BANK28  BANK29  BANK30  BANK3
      +1  BANK32  BANK33  BANK34  BANK35  BANK36
  3846 ;;      Params:         0       0       0       0       0       0       0       0       0       0       0       0       
      +0       0       0       0       0       0       0       0       0       0       0       0       0       0       0       
      +0       0       0       0       0       0
  3847 ;;      Locals:         1       0       0       0       0       0       0       0       0       0       0       0       
      +0       0       0       0       0       0       0       0       0       0       0       0       0       0       0       
      +0       0       0       0       0       0
  3848 ;;      Temps:          2       0       0       0       0       0       0       0       0       0       0       0       
      +0       0       0       0       0       0       0       0       0       0       0       0       0       0       0       
      +0       0       0       0       0       0
  3849 ;;      Totals:         3       0       0       0       0       0       0       0       0       0       0       0       
      +0       0       0       0       0       0       0       0       0       0       0       0       0       0       0       
      +0       0       0       0       0       0
  3850 ;;Total ram usage:        3 bytes
  3851 ;; Hardware stack levels used: 1
  3852 ;; Hardware stack levels required when called: 1
  3853 ;; This function calls:
  3854 ;;		Nothing
  3855 ;; This function is called by:
  3856 ;;		_lcdInit
  3857 ;;		_updateDisplay
  3858 ;; This function uses a non-reentrant model
  3859 ;;
  3860                           
  3861                           	psect	text14
  3862   0038AE                     __ptext14:
  3863                           	callstack 0
  3864   0038AE                     _lcdWriteCmd:
  3865                           	callstack 124
  3866                           
  3867                           ;incstack = 0
  3868                           ;lcdWriteCmd@cmd stored from wreg
  3869   0038AE  6E03               	movwf	lcdWriteCmd@cmd^(0+1280),c
  3870   0038B0                     
  3871                           ;main.c: 196:     LATCbits.LATC0 = 0;
  3872   0038B0  90C0               	bcf	192,0,c	;volatile
  3873   0038B2                     
  3874                           ;main.c: 197:     LATCbits.LATC2 = (cmd >> 0) & 0x01;
  3875   0038B2  C503  F501         	movff	lcdWriteCmd@cmd,??_lcdWriteCmd
  3876   0038B6  0E01               	movlw	1
  3877   0038B8  1601               	andwf	??_lcdWriteCmd^(0+1280),f,c
  3878   0038BA  4601               	rlncf	??_lcdWriteCmd^(0+1280),f,c
  3879   0038BC  4601               	rlncf	??_lcdWriteCmd^(0+1280),f,c
  3880   0038BE  50C0               	movf	192,w,c	;volatile
  3881   0038C0  1801               	xorwf	??_lcdWriteCmd^(0+1280),w,c
  3882   0038C2  0BFB               	andlw	-5
  3883   0038C4  1801               	xorwf	??_lcdWriteCmd^(0+1280),w,c
  3884   0038C6  6EC0               	movwf	192,c	;volatile
  3885                           
  3886                           ;main.c: 198:     LATCbits.LATC3 = (cmd >> 1) & 0x01;
  3887   0038C8  C503  F501         	movff	lcdWriteCmd@cmd,??_lcdWriteCmd
  3888   0038CC  90D8               	bcf	status,0,c
  3889   0038CE  3201               	rrcf	??_lcdWriteCmd^(0+1280),f,c
  3890   0038D0  0E01               	movlw	1
  3891   0038D2  1601               	andwf	??_lcdWriteCmd^(0+1280),f,c
  3892   0038D4  4601               	rlncf	??_lcdWriteCmd^(0+1280),f,c
  3893   0038D6  4601               	rlncf	??_lcdWriteCmd^(0+1280),f,c
  3894   0038D8  4601               	rlncf	??_lcdWriteCmd^(0+1280),f,c
  3895   0038DA  50C0               	movf	192,w,c	;volatile
  3896   0038DC  1801               	xorwf	??_lcdWriteCmd^(0+1280),w,c
  3897   0038DE  0BF7               	andlw	-9
  3898   0038E0  1801               	xorwf	??_lcdWriteCmd^(0+1280),w,c
  3899   0038E2  6EC0               	movwf	192,c	;volatile
  3900                           
  3901                           ;main.c: 199:     LATCbits.LATC4 = (cmd >> 2) & 0x01;
  3902   0038E4  C503  F501         	movff	lcdWriteCmd@cmd,??_lcdWriteCmd
  3903   0038E8  90D8               	bcf	status,0,c
  3904   0038EA  3201               	rrcf	??_lcdWriteCmd^(0+1280),f,c
  3905   0038EC  90D8               	bcf	status,0,c
  3906   0038EE  3201               	rrcf	??_lcdWriteCmd^(0+1280),f,c
  3907   0038F0  0E01               	movlw	1
  3908   0038F2  1601               	andwf	??_lcdWriteCmd^(0+1280),f,c
  3909   0038F4  3A01               	swapf	??_lcdWriteCmd^(0+1280),f,c
  3910   0038F6  50C0               	movf	192,w,c	;volatile
  3911   0038F8  1801               	xorwf	??_lcdWriteCmd^(0+1280),w,c
  3912   0038FA  0BEF               	andlw	-17
  3913   0038FC  1801               	xorwf	??_lcdWriteCmd^(0+1280),w,c
  3914   0038FE  6EC0               	movwf	192,c	;volatile
  3915                           
  3916                           ;main.c: 200:     LATCbits.LATC5 = (cmd >> 3) & 0x01;
  3917   003900  C503  F501         	movff	lcdWriteCmd@cmd,??_lcdWriteCmd
  3918   003904  90D8               	bcf	status,0,c
  3919   003906  3201               	rrcf	??_lcdWriteCmd^(0+1280),f,c
  3920   003908  90D8               	bcf	status,0,c
  3921   00390A  3201               	rrcf	??_lcdWriteCmd^(0+1280),f,c
  3922   00390C  90D8               	bcf	status,0,c
  3923   00390E  3201               	rrcf	??_lcdWriteCmd^(0+1280),f,c
  3924   003910  0E01               	movlw	1
  3925   003912  1601               	andwf	??_lcdWriteCmd^(0+1280),f,c
  3926   003914  3A01               	swapf	??_lcdWriteCmd^(0+1280),f,c
  3927   003916  4601               	rlncf	??_lcdWriteCmd^(0+1280),f,c
  3928   003918  50C0               	movf	192,w,c	;volatile
  3929   00391A  1801               	xorwf	??_lcdWriteCmd^(0+1280),w,c
  3930   00391C  0BDF               	andlw	-33
  3931   00391E  1801               	xorwf	??_lcdWriteCmd^(0+1280),w,c
  3932   003920  6EC0               	movwf	192,c	;volatile
  3933                           
  3934                           ;main.c: 201:     LATCbits.LATC6 = (cmd >> 4) & 0x01;
  3935   003922  C503  F501         	movff	lcdWriteCmd@cmd,??_lcdWriteCmd
  3936   003926  3A01               	swapf	??_lcdWriteCmd^(0+1280),f,c
  3937   003928  0E0F               	movlw	15
  3938   00392A  1601               	andwf	??_lcdWriteCmd^(0+1280),f,c
  3939   00392C  0E01               	movlw	1
  3940   00392E  1601               	andwf	??_lcdWriteCmd^(0+1280),f,c
  3941   003930  3A01               	swapf	??_lcdWriteCmd^(0+1280),f,c
  3942   003932  4601               	rlncf	??_lcdWriteCmd^(0+1280),f,c
  3943   003934  4601               	rlncf	??_lcdWriteCmd^(0+1280),f,c
  3944   003936  50C0               	movf	192,w,c	;volatile
  3945   003938  1801               	xorwf	??_lcdWriteCmd^(0+1280),w,c
  3946   00393A  0BBF               	andlw	-65
  3947   00393C  1801               	xorwf	??_lcdWriteCmd^(0+1280),w,c
  3948   00393E  6EC0               	movwf	192,c	;volatile
  3949                           
  3950                           ;main.c: 202:     LATCbits.LATC7 = (cmd >> 5) & 0x01;
  3951   003940  C503  F501         	movff	lcdWriteCmd@cmd,??_lcdWriteCmd
  3952   003944  0E05               	movlw	5
  3953   003946  6E02               	movwf	(??_lcdWriteCmd+1)^(0+1280),c
  3954   003948                     u1065:
  3955   003948  90D8               	bcf	status,0,c
  3956   00394A  3201               	rrcf	??_lcdWriteCmd^(0+1280),f,c
  3957   00394C  2E02               	decfsz	(??_lcdWriteCmd+1)^(0+1280),f,c
  3958   00394E  EFA4  F01C         	goto	u1065
  3959   003952  0E01               	movlw	1
  3960   003954  1601               	andwf	??_lcdWriteCmd^(0+1280),f,c
  3961   003956  3201               	rrcf	??_lcdWriteCmd^(0+1280),f,c
  3962   003958  3201               	rrcf	??_lcdWriteCmd^(0+1280),f,c
  3963   00395A  50C0               	movf	192,w,c	;volatile
  3964   00395C  1801               	xorwf	??_lcdWriteCmd^(0+1280),w,c
  3965   00395E  0B7F               	andlw	-129
  3966   003960  1801               	xorwf	??_lcdWriteCmd^(0+1280),w,c
  3967   003962  6EC0               	movwf	192,c	;volatile
  3968                           
  3969                           ;main.c: 203:     LATDbits.LATD0 = (cmd >> 6) & 0x01;
  3970   003964  C503  F501         	movff	lcdWriteCmd@cmd,??_lcdWriteCmd
  3971   003968  0E06               	movlw	6
  3972   00396A  6E02               	movwf	(??_lcdWriteCmd+1)^(0+1280),c
  3973   00396C                     u1075:
  3974   00396C  90D8               	bcf	status,0,c
  3975   00396E  3201               	rrcf	??_lcdWriteCmd^(0+1280),f,c
  3976   003970  2E02               	decfsz	(??_lcdWriteCmd+1)^(0+1280),f,c
  3977   003972  EFB6  F01C         	goto	u1075
  3978   003976  0E01               	movlw	1
  3979   003978  1601               	andwf	??_lcdWriteCmd^(0+1280),f,c
  3980   00397A  50C1               	movf	193,w,c	;volatile
  3981   00397C  1801               	xorwf	??_lcdWriteCmd^(0+1280),w,c
  3982   00397E  0BFE               	andlw	-2
  3983   003980  1801               	xorwf	??_lcdWriteCmd^(0+1280),w,c
  3984   003982  6EC1               	movwf	193,c	;volatile
  3985                           
  3986                           ;main.c: 204:     LATDbits.LATD1 = (cmd >> 7) & 0x01;
  3987   003984  6A01               	clrf	??_lcdWriteCmd^(0+1280),c
  3988   003986  AE03               	btfss	lcdWriteCmd@cmd^(0+1280),7,c
  3989   003988  D001               	bra	u1085
  3990   00398A  2A01               	incf	??_lcdWriteCmd^(0+1280),f,c
  3991   00398C                     u1085:
  3992   00398C  0E01               	movlw	1
  3993   00398E  1601               	andwf	??_lcdWriteCmd^(0+1280),f,c
  3994   003990  4601               	rlncf	??_lcdWriteCmd^(0+1280),f,c
  3995   003992  50C1               	movf	193,w,c	;volatile
  3996   003994  1801               	xorwf	??_lcdWriteCmd^(0+1280),w,c
  3997   003996  0BFD               	andlw	-3
  3998   003998  1801               	xorwf	??_lcdWriteCmd^(0+1280),w,c
  3999   00399A  6EC1               	movwf	193,c	;volatile
  4000   00399C                     
  4001                           ;main.c: 206:     LATCbits.LATC1 = 1;
  4002   00399C  82C0               	bsf	192,1,c	;volatile
  4003   00399E                     
  4004                           ;main.c: 207:     _delay((unsigned long)((1)*(64000000UL/4000000.0)));
  4005   00399E  0E05               	movlw	5
  4006   0039A0                     u1677:
  4007   0039A0  2EE8               	decfsz	wreg,f,c
  4008   0039A2  D7FE               	bra	u1677
  4009   0039A4  0000               	nop	
  4010   0039A6                     
  4011                           ;main.c: 208:     LATCbits.LATC1 = 0;
  4012   0039A6  92C0               	bcf	192,1,c	;volatile
  4013   0039A8                     
  4014                           ;main.c: 209:     _delay((unsigned long)((100)*(64000000UL/4000000.0)));
  4015   0039A8  0EE4               	movlw	228
  4016   0039AA                     u1687:
  4017   0039AA  D000               	nop2	
  4018   0039AC  D000               	nop2	
  4019   0039AE  2EE8               	decfsz	wreg,f,c
  4020   0039B0  D7FC               	bra	u1687
  4021   0039B2  D000               	nop2	
  4022   0039B4  D000               	nop2	
  4023   0039B6  0012               	return		;funcret
  4024   0039B8                     __end_of_lcdWriteCmd:
  4025                           	callstack 0
  4026                           
  4027 ;; *************** function _keypadScan *****************
  4028 ;; Defined at:
  4029 ;;		line 238 in file "main.c"
  4030 ;; Parameters:    Size  Location     Type
  4031 ;;		None
  4032 ;; Auto vars:     Size  Location     Type
  4033 ;;  result          1   22[COMRAM] unsigned char 
  4034 ;;  row             1   24[COMRAM] unsigned char 
  4035 ;;  col             1   23[COMRAM] unsigned char 
  4036 ;;  keys           20    2[COMRAM] unsigned char [5][4]
  4037 ;; Return value:  Size  Location     Type
  4038 ;;                  1    wreg      unsigned char 
  4039 ;; Registers used:
  4040 ;;		wreg, fsr1l, fsr1h, fsr2l, fsr2h, status,2, status,0, prodl, prodh
  4041 ;; Tracked objects:
  4042 ;;		On entry : 0/0
  4043 ;;		On exit  : 0/0
  4044 ;;		Unchanged: 0/0
  4045 ;; Data sizes:     COMRAM   BANK5   BANK6   BANK7   BANK8   BANK9  BANK10  BANK11  BANK12  BANK13  BANK14  BANK15  BANK1
      +6  BANK17  BANK18  BANK19  BANK20  BANK21  BANK22  BANK23  BANK24  BANK25  BANK26  BANK27  BANK28  BANK29  BANK30  BANK3
      +1  BANK32  BANK33  BANK34  BANK35  BANK36
  4046 ;;      Params:         0       0       0       0       0       0       0       0       0       0       0       0       
      +0       0       0       0       0       0       0       0       0       0       0       0       0       0       0       
      +0       0       0       0       0       0
  4047 ;;      Locals:        23       0       0       0       0       0       0       0       0       0       0       0       
      +0       0       0       0       0       0       0       0       0       0       0       0       0       0       0       
      +0       0       0       0       0       0
  4048 ;;      Temps:          2       0       0       0       0       0       0       0       0       0       0       0       
      +0       0       0       0       0       0       0       0       0       0       0       0       0       0       0       
      +0       0       0       0       0       0
  4049 ;;      Totals:        25       0       0       0       0       0       0       0       0       0       0       0       
      +0       0       0       0       0       0       0       0       0       0       0       0       0       0       0       
      +0       0       0       0       0       0
  4050 ;;Total ram usage:       25 bytes
  4051 ;; Hardware stack levels used: 1
  4052 ;; Hardware stack levels required when called: 1
  4053 ;; This function calls:
  4054 ;;		Nothing
  4055 ;; This function is called by:
  4056 ;;		_main
  4057 ;; This function uses a non-reentrant model
  4058 ;;
  4059                           
  4060                           	psect	text15
  4061   0035D2                     __ptext15:
  4062                           	callstack 0
  4063   0035D2                     _keypadScan:
  4064                           	callstack 125
  4065   0035D2                     
  4066                           ;main.c: 239:     char keys[4][5] = {
  4067   0035D2  EE21  F1AC         	lfsr	2,keypadScan@F23798
  4068   0035D6  EE11  F103         	lfsr	1,keypadScan@keys
  4069   0035DA  0E13               	movlw	19
  4070   0035DC                     u1171:
  4071   0035DC  C4DB F4E3          	movff	plusw2,plusw1
  4072   0035E0  06E8               	decf	wreg,f,c
  4073   0035E2  E2FC               	bc	u1171
  4074   0035E4                     
  4075                           ;main.c: 247:     LATBbits.LATB4 = LATBbits.LATB5 = LATBbits.LATB6 = LATBbits.LATB7 = LA
      +                          TBbits.LATB0 = 1;
  4076   0035E4  80BF               	bsf	191,0,c	;volatile
  4077   0035E6  8EBF               	bsf	191,7,c	;volatile
  4078   0035E8  8CBF               	bsf	191,6,c	;volatile
  4079   0035EA  8ABF               	bsf	191,5,c	;volatile
  4080   0035EC  88BF               	bsf	191,4,c	;volatile
  4081   0035EE                     
  4082                           ;main.c: 248:     if (PORTBbits.RB0 && PORTBbits.RB1 && PORTBbits.RB2 && PORTBbits.RB3) 
      +                          return 0;
  4083   0035EE  A0CF               	btfss	207,0,c	;volatile
  4084   0035F0  EFFC  F01A         	goto	u1181
  4085   0035F4  EFFE  F01A         	goto	u1180
  4086   0035F8                     u1181:
  4087   0035F8  EF16  F01B         	goto	l112
  4088   0035FC                     u1180:
  4089   0035FC  A2CF               	btfss	207,1,c	;volatile
  4090   0035FE  EF03  F01B         	goto	u1191
  4091   003602  EF05  F01B         	goto	u1190
  4092   003606                     u1191:
  4093   003606  EF16  F01B         	goto	l112
  4094   00360A                     u1190:
  4095   00360A  A4CF               	btfss	207,2,c	;volatile
  4096   00360C  EF0A  F01B         	goto	u1201
  4097   003610  EF0C  F01B         	goto	u1200
  4098   003614                     u1201:
  4099   003614  EF16  F01B         	goto	l112
  4100   003618                     u1200:
  4101   003618  A6CF               	btfss	207,3,c	;volatile
  4102   00361A  EF11  F01B         	goto	u1211
  4103   00361E  EF13  F01B         	goto	u1210
  4104   003622                     u1211:
  4105   003622  EF16  F01B         	goto	l112
  4106   003626                     u1210:
  4107   003626                     l1681:
  4108   003626  0E00               	movlw	0
  4109   003628  EFD1  F01B         	goto	l113
  4110   00362C                     l112:
  4111                           
  4112                           ;main.c: 251:     for (char col = 0; col < 5; col++) {
  4113   00362C  6A18               	clrf	keypadScan@col^(0+1280),c
  4114   00362E                     l114:
  4115                           
  4116                           ;main.c: 253:         LATBbits.LATB4 = LATBbits.LATB5 = LATBbits.LATB6 = LATBbits.LATB7 
      +                          = LATBbits.LATB0 = 1;
  4117   00362E  80BF               	bsf	191,0,c	;volatile
  4118   003630  8EBF               	bsf	191,7,c	;volatile
  4119   003632  8CBF               	bsf	191,6,c	;volatile
  4120   003634  8ABF               	bsf	191,5,c	;volatile
  4121   003636  88BF               	bsf	191,4,c	;volatile
  4122   003638                     
  4123                           ;main.c: 254:         if (col == 0) LATBbits.LATB4 = 0;
  4124   003638  5018               	movf	keypadScan@col^(0+1280),w,c
  4125   00363A  A4D8               	btfss	status,2,c
  4126   00363C  EF22  F01B         	goto	u1221
  4127   003640  EF24  F01B         	goto	u1220
  4128   003644                     u1221:
  4129   003644  EF27  F01B         	goto	l1693
  4130   003648                     u1220:
  4131   003648  98BF               	bcf	191,4,c	;volatile
  4132   00364A  EF4B  F01B         	goto	l1705
  4133   00364E                     l1693:
  4134   00364E  0418               	decf	keypadScan@col^(0+1280),w,c
  4135   003650  A4D8               	btfss	status,2,c
  4136   003652  EF2D  F01B         	goto	u1231
  4137   003656  EF2F  F01B         	goto	u1230
  4138   00365A                     u1231:
  4139   00365A  EF32  F01B         	goto	l1697
  4140   00365E                     u1230:
  4141   00365E  9ABF               	bcf	191,5,c	;volatile
  4142   003660  EF4B  F01B         	goto	l1705
  4143   003664                     l1697:
  4144   003664  0E02               	movlw	2
  4145   003666  1818               	xorwf	keypadScan@col^(0+1280),w,c
  4146   003668  A4D8               	btfss	status,2,c
  4147   00366A  EF39  F01B         	goto	u1241
  4148   00366E  EF3B  F01B         	goto	u1240
  4149   003672                     u1241:
  4150   003672  EF3E  F01B         	goto	l1701
  4151   003676                     u1240:
  4152   003676  9CBF               	bcf	191,6,c	;volatile
  4153   003678  EF4B  F01B         	goto	l1705
  4154   00367C                     l1701:
  4155   00367C  0E03               	movlw	3
  4156   00367E  1818               	xorwf	keypadScan@col^(0+1280),w,c
  4157   003680  A4D8               	btfss	status,2,c
  4158   003682  EF45  F01B         	goto	u1251
  4159   003686  EF47  F01B         	goto	u1250
  4160   00368A                     u1251:
  4161   00368A  EF4A  F01B         	goto	l122
  4162   00368E                     u1250:
  4163   00368E  9EBF               	bcf	191,7,c	;volatile
  4164   003690  EF4B  F01B         	goto	l1705
  4165   003694                     l122:
  4166   003694  90BF               	bcf	191,0,c	;volatile
  4167   003696                     l1705:
  4168                           
  4169                           ;main.c: 260:         _delay((unsigned long)((10)*(64000000UL/4000000.0)));
  4170   003696  0E35               	movlw	53
  4171   003698                     u1697:
  4172   003698  2EE8               	decfsz	wreg,f,c
  4173   00369A  D7FE               	bra	u1697
  4174   00369C  0000               	nop	
  4175   00369E                     
  4176                           ;main.c: 263:         for (char row = 0; row < 4; row++) {
  4177   00369E  6A19               	clrf	keypadScan@row^(0+1280),c
  4178   0036A0                     l1713:
  4179                           
  4180                           ;main.c: 264:             if ((row == 0 && !PORTBbits.RB0) || (row == 1 && !PORTBbits.RB
      +                          1) ||
  4181   0036A0  5019               	movf	keypadScan@row^(0+1280),w,c
  4182   0036A2  A4D8               	btfss	status,2,c
  4183   0036A4  EF56  F01B         	goto	u1261
  4184   0036A8  EF58  F01B         	goto	u1260
  4185   0036AC                     u1261:
  4186   0036AC  EF5F  F01B         	goto	l1717
  4187   0036B0                     u1260:
  4188   0036B0  A0CF               	btfss	207,0,c	;volatile
  4189   0036B2  EF5D  F01B         	goto	u1271
  4190   0036B6  EF5F  F01B         	goto	u1270
  4191   0036BA                     u1271:
  4192   0036BA  EF8E  F01B         	goto	l1729
  4193   0036BE                     u1270:
  4194   0036BE                     l1717:
  4195   0036BE  0419               	decf	keypadScan@row^(0+1280),w,c
  4196   0036C0  A4D8               	btfss	status,2,c
  4197   0036C2  EF65  F01B         	goto	u1281
  4198   0036C6  EF67  F01B         	goto	u1280
  4199   0036CA                     u1281:
  4200   0036CA  EF6E  F01B         	goto	l1721
  4201   0036CE                     u1280:
  4202   0036CE  A2CF               	btfss	207,1,c	;volatile
  4203   0036D0  EF6C  F01B         	goto	u1291
  4204   0036D4  EF6E  F01B         	goto	u1290
  4205   0036D8                     u1291:
  4206   0036D8  EF8E  F01B         	goto	l1729
  4207   0036DC                     u1290:
  4208   0036DC                     l1721:
  4209   0036DC  0E02               	movlw	2
  4210   0036DE  1819               	xorwf	keypadScan@row^(0+1280),w,c
  4211   0036E0  A4D8               	btfss	status,2,c
  4212   0036E2  EF75  F01B         	goto	u1301
  4213   0036E6  EF77  F01B         	goto	u1300
  4214   0036EA                     u1301:
  4215   0036EA  EF7E  F01B         	goto	l1725
  4216   0036EE                     u1300:
  4217   0036EE  A4CF               	btfss	207,2,c	;volatile
  4218   0036F0  EF7C  F01B         	goto	u1311
  4219   0036F4  EF7E  F01B         	goto	u1310
  4220   0036F8                     u1311:
  4221   0036F8  EF8E  F01B         	goto	l1729
  4222   0036FC                     u1310:
  4223   0036FC                     l1725:
  4224   0036FC  0E03               	movlw	3
  4225   0036FE  1819               	xorwf	keypadScan@row^(0+1280),w,c
  4226   003700  A4D8               	btfss	status,2,c
  4227   003702  EF85  F01B         	goto	u1321
  4228   003706  EF87  F01B         	goto	u1320
  4229   00370A                     u1321:
  4230   00370A  EFBD  F01B         	goto	l1741
  4231   00370E                     u1320:
  4232   00370E  B6CF               	btfsc	207,3,c	;volatile
  4233   003710  EF8C  F01B         	goto	u1331
  4234   003714  EF8E  F01B         	goto	u1330
  4235   003718                     u1331:
  4236   003718  EFBD  F01B         	goto	l1741
  4237   00371C                     u1330:
  4238   00371C                     l1729:
  4239                           
  4240                           ;main.c: 265:                 (row == 2 && !PORTBbits.RB2) || (row == 3 && !PORTBbits.RB
      +                          3)) {;main.c: 266:                 char result = keys[row][col];
  4241   00371C  5019               	movf	keypadScan@row^(0+1280),w,c
  4242   00371E  0D05               	mullw	5
  4243   003720  0E03               	movlw	low keypadScan@keys
  4244   003722  24F3               	addwf	243,w,c
  4245   003724  6E01               	movwf	??_keypadScan^(0+1280),c
  4246   003726  0E05               	movlw	high keypadScan@keys
  4247   003728  20F4               	addwfc	prodh,w,c
  4248   00372A  6E02               	movwf	(??_keypadScan+1)^(0+1280),c
  4249   00372C  5018               	movf	keypadScan@col^(0+1280),w,c
  4250   00372E  2401               	addwf	??_keypadScan^(0+1280),w,c
  4251   003730  6ED9               	movwf	fsr2l,c
  4252   003732  0E00               	movlw	0
  4253   003734  2002               	addwfc	(??_keypadScan+1)^(0+1280),w,c
  4254   003736  6EDA               	movwf	fsr2h,c
  4255   003738  50DF               	movf	indf2,w,c
  4256   00373A  6E17               	movwf	keypadScan@result^(0+1280),c
  4257   00373C                     l135:
  4258   00373C  A0CF               	btfss	207,0,c	;volatile
  4259   00373E  EFA3  F01B         	goto	u1341
  4260   003742  EFA5  F01B         	goto	u1340
  4261   003746                     u1341:
  4262   003746  EF9E  F01B         	goto	l135
  4263   00374A                     u1340:
  4264   00374A  A2CF               	btfss	207,1,c	;volatile
  4265   00374C  EFAA  F01B         	goto	u1351
  4266   003750  EFAC  F01B         	goto	u1350
  4267   003754                     u1351:
  4268   003754  EF9E  F01B         	goto	l135
  4269   003758                     u1350:
  4270   003758  A4CF               	btfss	207,2,c	;volatile
  4271   00375A  EFB1  F01B         	goto	u1361
  4272   00375E  EFB3  F01B         	goto	u1360
  4273   003762                     u1361:
  4274   003762  EF9E  F01B         	goto	l135
  4275   003766                     u1360:
  4276   003766  A6CF               	btfss	207,3,c	;volatile
  4277   003768  EFB8  F01B         	goto	u1371
  4278   00376C  EFBA  F01B         	goto	u1370
  4279   003770                     u1371:
  4280   003770  EF9E  F01B         	goto	l135
  4281   003774                     u1370:
  4282   003774                     
  4283                           ;main.c: 268:                 return result;
  4284   003774  5017               	movf	keypadScan@result^(0+1280),w,c
  4285   003776  EFD1  F01B         	goto	l113
  4286   00377A                     l1741:
  4287                           
  4288                           ;main.c: 270:         }
  4289   00377A  2A19               	incf	keypadScan@row^(0+1280),f,c
  4290   00377C  0E03               	movlw	3
  4291   00377E  6419               	cpfsgt	keypadScan@row^(0+1280),c
  4292   003780  EFC4  F01B         	goto	u1381
  4293   003784  EFC6  F01B         	goto	u1380
  4294   003788                     u1381:
  4295   003788  EF50  F01B         	goto	l1713
  4296   00378C                     u1380:
  4297   00378C                     
  4298                           ;main.c: 271:     }
  4299   00378C  2A18               	incf	keypadScan@col^(0+1280),f,c
  4300   00378E  0E04               	movlw	4
  4301   003790  6418               	cpfsgt	keypadScan@col^(0+1280),c
  4302   003792  EFCD  F01B         	goto	u1391
  4303   003796  EFCF  F01B         	goto	u1390
  4304   00379A                     u1391:
  4305   00379A  EF17  F01B         	goto	l114
  4306   00379E                     u1390:
  4307   00379E  EF13  F01B         	goto	l1681
  4308   0037A2                     l113:
  4309   0037A2  0012               	return		;funcret
  4310   0037A4                     __end_of_keypadScan:
  4311                           	callstack 0
  4312                           
  4313 ;; *************** function _handleKeypress *****************
  4314 ;; Defined at:
  4315 ;;		line 276 in file "main.c"
  4316 ;; Parameters:    Size  Location     Type
  4317 ;;  key             1    wreg     unsigned char 
  4318 ;; Auto vars:     Size  Location     Type
  4319 ;;  key             1   14[COMRAM] unsigned char 
  4320 ;; Return value:  Size  Location     Type
  4321 ;;                  1    wreg      void 
  4322 ;; Registers used:
  4323 ;;		wreg, status,2, status,0, cstack
  4324 ;; Tracked objects:
  4325 ;;		On entry : 0/0
  4326 ;;		On exit  : 0/0
  4327 ;;		Unchanged: 0/0
  4328 ;; Data sizes:     COMRAM   BANK5   BANK6   BANK7   BANK8   BANK9  BANK10  BANK11  BANK12  BANK13  BANK14  BANK15  BANK1
      +6  BANK17  BANK18  BANK19  BANK20  BANK21  BANK22  BANK23  BANK24  BANK25  BANK26  BANK27  BANK28  BANK29  BANK30  BANK3
      +1  BANK32  BANK33  BANK34  BANK35  BANK36
  4329 ;;      Params:         0       0       0       0       0       0       0       0       0       0       0       0       
      +0       0       0       0       0       0       0       0       0       0       0       0       0       0       0       
      +0       0       0       0       0       0
  4330 ;;      Locals:         1       0       0       0       0       0       0       0       0       0       0       0       
      +0       0       0       0       0       0       0       0       0       0       0       0       0       0       0       
      +0       0       0       0       0       0
  4331 ;;      Temps:          2       0       0       0       0       0       0       0       0       0       0       0       
      +0       0       0       0       0       0       0       0       0       0       0       0       0       0       0       
      +0       0       0       0       0       0
  4332 ;;      Totals:         3       0       0       0       0       0       0       0       0       0       0       0       
      +0       0       0       0       0       0       0       0       0       0       0       0       0       0       0       
      +0       0       0       0       0       0
  4333 ;;Total ram usage:        3 bytes
  4334 ;; Hardware stack levels used: 1
  4335 ;; Hardware stack levels required when called: 2
  4336 ;; This function calls:
  4337 ;;		___lmul
  4338 ;; This function is called by:
  4339 ;;		_main
  4340 ;; This function uses a non-reentrant model
  4341 ;;
  4342                           
  4343                           	psect	text16
  4344   0033E0                     __ptext16:
  4345                           	callstack 0
  4346   0033E0                     _handleKeypress:
  4347                           	callstack 124
  4348                           
  4349                           ;incstack = 0
  4350                           ;handleKeypress@key stored from wreg
  4351   0033E0  6E0F               	movwf	handleKeypress@key^(0+1280),c
  4352   0033E2                     
  4353                           ;main.c: 277:     static unsigned long input_value = 0;;main.c: 278:     static char mod
      +                          e = 0;;main.c: 280:     if (key == 'A') {
  4354   0033E2  0E41               	movlw	65
  4355   0033E4  180F               	xorwf	handleKeypress@key^(0+1280),w,c
  4356   0033E6  A4D8               	btfss	status,2,c
  4357   0033E8  EFF8  F019         	goto	u1401
  4358   0033EC  EFFA  F019         	goto	u1400
  4359   0033F0                     u1401:
  4360   0033F0  EF1B  F01A         	goto	l1765
  4361   0033F4                     u1400:
  4362   0033F4                     
  4363                           ;main.c: 281:         if (!activePulse) {
  4364   0033F4  505B               	movf	_activePulse^(0+1280),w,c
  4365   0033F6  A4D8               	btfss	status,2,c
  4366   0033F8  EF00  F01A         	goto	u1411
  4367   0033FC  EF02  F01A         	goto	u1410
  4368   003400                     u1411:
  4369   003400  EF11  F01A         	goto	l145
  4370   003404                     u1410:
  4371   003404                     
  4372                           ;main.c: 282:             activePulse = 1;
  4373   003404  0E01               	movlw	1
  4374   003406  6E5B               	movwf	_activePulse^(0+1280),c
  4375   003408                     
  4376                           ;main.c: 283:             countCurrent = timerDuration;
  4377   003408  C5C0  F584         	movff	_timerDuration,_countCurrent
  4378   00340C  C5C1  F585         	movff	_timerDuration+1,_countCurrent+1
  4379   003410  C5C2  F586         	movff	_timerDuration+2,_countCurrent+2
  4380   003414  C5C3  F587         	movff	_timerDuration+3,_countCurrent+3
  4381   003418                     
  4382                           ;main.c: 284:             LATDbits.LATD2 = 1;
  4383   003418  84C1               	bsf	193,2,c	;volatile
  4384   00341A                     
  4385                           ;main.c: 285:             T2CONbits.TMR2ON = 1;
  4386   00341A  0103               	movlb	3	; () banked
  4387   00341C  8F24               	bsf	36,7,b	;volatile
  4388                           
  4389                           ;main.c: 286:         } else {
  4390   00341E  EFE8  F01A         	goto	l162
  4391   003422                     l145:
  4392                           
  4393                           ;main.c: 287:             activePulse = 0;
  4394   003422  6A5B               	clrf	_activePulse^(0+1280),c
  4395                           
  4396                           ;main.c: 288:             LATDbits.LATD2 = 0;
  4397   003424  94C1               	bcf	193,2,c	;volatile
  4398                           
  4399                           ;main.c: 289:             LATDbits.LATD3 = 0;
  4400   003426  96C1               	bcf	193,3,c	;volatile
  4401                           
  4402                           ;main.c: 290:             LATDbits.LATD4 = 0;
  4403   003428  98C1               	bcf	193,4,c	;volatile
  4404                           
  4405                           ;main.c: 291:             T2CONbits.TMR2ON = 0;
  4406   00342A  0103               	movlb	3	; () banked
  4407   00342C  9F24               	bcf	36,7,b	;volatile
  4408   00342E  EFE8  F01A         	goto	l162
  4409   003432                     l146:
  4410                           
  4411                           ;main.c: 293:     }
  4412   003432  EFE8  F01A         	goto	l162
  4413   003436                     l1765:
  4414   003436  0E42               	movlw	66
  4415   003438  180F               	xorwf	handleKeypress@key^(0+1280),w,c
  4416   00343A  A4D8               	btfss	status,2,c
  4417   00343C  EF22  F01A         	goto	u1421
  4418   003440  EF24  F01A         	goto	u1420
  4419   003444                     u1421:
  4420   003444  EF2F  F01A         	goto	l1769
  4421   003448                     u1420:
  4422   003448                     
  4423                           ;main.c: 295:         mode = 0;
  4424   003448  6A59               	clrf	handleKeypress@mode^(0+1280),c
  4425                           
  4426                           ;main.c: 296:         input_value = onPulseTime;
  4427   00344A  C55C  F554         	movff	_onPulseTime,handleKeypress@input_value
  4428   00344E  C55D  F555         	movff	_onPulseTime+1,handleKeypress@input_value+1
  4429   003452  C55E  F556         	movff	_onPulseTime+2,handleKeypress@input_value+2
  4430   003456  C55F  F557         	movff	_onPulseTime+3,handleKeypress@input_value+3
  4431                           
  4432                           ;main.c: 297:     }
  4433   00345A  EFE8  F01A         	goto	l162
  4434   00345E                     l1769:
  4435   00345E  0E43               	movlw	67
  4436   003460  180F               	xorwf	handleKeypress@key^(0+1280),w,c
  4437   003462  A4D8               	btfss	status,2,c
  4438   003464  EF36  F01A         	goto	u1431
  4439   003468  EF38  F01A         	goto	u1430
  4440   00346C                     u1431:
  4441   00346C  EF44  F01A         	goto	l1775
  4442   003470                     u1430:
  4443   003470                     
  4444                           ;main.c: 299:         mode = 1;
  4445   003470  0E01               	movlw	1
  4446   003472  6E59               	movwf	handleKeypress@mode^(0+1280),c
  4447   003474                     
  4448                           ;main.c: 300:         input_value = offPulseTime;
  4449   003474  C5C4  F554         	movff	_offPulseTime,handleKeypress@input_value
  4450   003478  C5C5  F555         	movff	_offPulseTime+1,handleKeypress@input_value+1
  4451   00347C  C5C6  F556         	movff	_offPulseTime+2,handleKeypress@input_value+2
  4452   003480  C5C7  F557         	movff	_offPulseTime+3,handleKeypress@input_value+3
  4453                           
  4454                           ;main.c: 301:     }
  4455   003484  EFE8  F01A         	goto	l162
  4456   003488                     l1775:
  4457   003488  0E44               	movlw	68
  4458   00348A  180F               	xorwf	handleKeypress@key^(0+1280),w,c
  4459   00348C  A4D8               	btfss	status,2,c
  4460   00348E  EF4B  F01A         	goto	u1441
  4461   003492  EF4D  F01A         	goto	u1440
  4462   003496                     u1441:
  4463   003496  EF59  F01A         	goto	l1781
  4464   00349A                     u1440:
  4465   00349A                     
  4466                           ;main.c: 303:         mode = 2;
  4467   00349A  0E02               	movlw	2
  4468   00349C  6E59               	movwf	handleKeypress@mode^(0+1280),c
  4469   00349E                     
  4470                           ;main.c: 304:         input_value = timerDuration;
  4471   00349E  C5C0  F554         	movff	_timerDuration,handleKeypress@input_value
  4472   0034A2  C5C1  F555         	movff	_timerDuration+1,handleKeypress@input_value+1
  4473   0034A6  C5C2  F556         	movff	_timerDuration+2,handleKeypress@input_value+2
  4474   0034AA  C5C3  F557         	movff	_timerDuration+3,handleKeypress@input_value+3
  4475                           
  4476                           ;main.c: 305:     }
  4477   0034AE  EFE8  F01A         	goto	l162
  4478   0034B2                     l1781:
  4479   0034B2  0E2F               	movlw	47
  4480   0034B4  640F               	cpfsgt	handleKeypress@key^(0+1280),c
  4481   0034B6  EF5F  F01A         	goto	u1451
  4482   0034BA  EF61  F01A         	goto	u1450
  4483   0034BE                     u1451:
  4484   0034BE  EF8F  F01A         	goto	l1787
  4485   0034C2                     u1450:
  4486   0034C2  0E3A               	movlw	58
  4487   0034C4  600F               	cpfslt	handleKeypress@key^(0+1280),c
  4488   0034C6  EF67  F01A         	goto	u1461
  4489   0034CA  EF69  F01A         	goto	u1460
  4490   0034CE                     u1461:
  4491   0034CE  EF8F  F01A         	goto	l1787
  4492   0034D2                     u1460:
  4493   0034D2                     
  4494                           ;main.c: 307:         input_value = input_value * 10 + (key - '0');
  4495   0034D2  0ED0               	movlw	208
  4496   0034D4  240F               	addwf	handleKeypress@key^(0+1280),w,c
  4497   0034D6  6E0D               	movwf	??_handleKeypress^(0+1280),c
  4498   0034D8  6A0E               	clrf	(??_handleKeypress+1)^(0+1280),c
  4499   0034DA  0EFF               	movlw	255
  4500   0034DC  220E               	addwfc	(??_handleKeypress+1)^(0+1280),f,c
  4501   0034DE  C554  F501         	movff	handleKeypress@input_value,___lmul@multiplier
  4502   0034E2  C555  F502         	movff	handleKeypress@input_value+1,___lmul@multiplier+1
  4503   0034E6  C556  F503         	movff	handleKeypress@input_value+2,___lmul@multiplier+2
  4504   0034EA  C557  F504         	movff	handleKeypress@input_value+3,___lmul@multiplier+3
  4505   0034EE  0E0A               	movlw	10
  4506   0034F0  6E05               	movwf	___lmul@multiplicand^(0+1280),c
  4507   0034F2  0E00               	movlw	0
  4508   0034F4  6E06               	movwf	(___lmul@multiplicand+1)^(0+1280),c
  4509   0034F6  0E00               	movlw	0
  4510   0034F8  6E07               	movwf	(___lmul@multiplicand+2)^(0+1280),c
  4511   0034FA  0E00               	movlw	0
  4512   0034FC  6E08               	movwf	(___lmul@multiplicand+3)^(0+1280),c
  4513   0034FE  EC8F  F01E         	call	___lmul	;wreg free
  4514   003502  500D               	movf	??_handleKeypress^(0+1280),w,c
  4515   003504  2401               	addwf	?___lmul^(0+1280),w,c
  4516   003506  6E54               	movwf	handleKeypress@input_value^(0+1280),c
  4517   003508  500E               	movf	(??_handleKeypress+1)^(0+1280),w,c
  4518   00350A  2002               	addwfc	(?___lmul+1)^(0+1280),w,c
  4519   00350C  6E55               	movwf	(handleKeypress@input_value+1)^(0+1280),c
  4520   00350E  0E00               	movlw	0
  4521   003510  2003               	addwfc	(?___lmul+2)^(0+1280),w,c
  4522   003512  6E56               	movwf	(handleKeypress@input_value+2)^(0+1280),c
  4523   003514  0E00               	movlw	0
  4524   003516  2004               	addwfc	(?___lmul+3)^(0+1280),w,c
  4525   003518  6E57               	movwf	(handleKeypress@input_value+3)^(0+1280),c
  4526                           
  4527                           ;main.c: 308:     }
  4528   00351A  EFE8  F01A         	goto	l162
  4529   00351E                     l1787:
  4530   00351E  0E23               	movlw	35
  4531   003520  180F               	xorwf	handleKeypress@key^(0+1280),w,c
  4532   003522  A4D8               	btfss	status,2,c
  4533   003524  EF96  F01A         	goto	u1471
  4534   003528  EF98  F01A         	goto	u1470
  4535   00352C                     u1471:
  4536   00352C  EF19  F01A         	goto	l146
  4537   003530                     u1470:
  4538   003530                     
  4539                           ;main.c: 310:         if (input_value >= 100 && input_value <= 999900) {
  4540   003530  5057               	movf	(handleKeypress@input_value+3)^(0+1280),w,c
  4541   003532  1056               	iorwf	(handleKeypress@input_value+2)^(0+1280),w,c
  4542   003534  1055               	iorwf	(handleKeypress@input_value+1)^(0+1280),w,c
  4543   003536  E109               	bnz	u1480
  4544   003538  0E64               	movlw	100
  4545   00353A  5C54               	subwf	handleKeypress@input_value^(0+1280),w,c
  4546   00353C  A0D8               	btfss	status,0,c
  4547   00353E  EFA3  F01A         	goto	u1481
  4548   003542  EFA5  F01A         	goto	u1480
  4549   003546                     u1481:
  4550   003546  EFE0  F01A         	goto	l1801
  4551   00354A                     u1480:
  4552   00354A  5057               	movf	(handleKeypress@input_value+3)^(0+1280),w,c
  4553   00354C  E10B               	bnz	u1491
  4554   00354E  0EDD               	movlw	221
  4555   003550  5C54               	subwf	handleKeypress@input_value^(0+1280),w,c
  4556   003552  0E41               	movlw	65
  4557   003554  5855               	subwfb	(handleKeypress@input_value+1)^(0+1280),w,c
  4558   003556  0E0F               	movlw	15
  4559   003558  5856               	subwfb	(handleKeypress@input_value+2)^(0+1280),w,c
  4560   00355A  B0D8               	btfsc	status,0,c
  4561   00355C  EFB2  F01A         	goto	u1491
  4562   003560  EFB4  F01A         	goto	u1490
  4563   003564                     u1491:
  4564   003564  EFE0  F01A         	goto	l1801
  4565   003568                     u1490:
  4566   003568                     
  4567                           ;main.c: 311:             if (mode == 0) onPulseTime = input_value;
  4568   003568  5059               	movf	handleKeypress@mode^(0+1280),w,c
  4569   00356A  A4D8               	btfss	status,2,c
  4570   00356C  EFBA  F01A         	goto	u1501
  4571   003570  EFBC  F01A         	goto	u1500
  4572   003574                     u1501:
  4573   003574  EFC6  F01A         	goto	l1797
  4574   003578                     u1500:
  4575   003578  C554  F55C         	movff	handleKeypress@input_value,_onPulseTime
  4576   00357C  C555  F55D         	movff	handleKeypress@input_value+1,_onPulseTime+1
  4577   003580  C556  F55E         	movff	handleKeypress@input_value+2,_onPulseTime+2
  4578   003584  C557  F55F         	movff	handleKeypress@input_value+3,_onPulseTime+3
  4579   003588  EFE0  F01A         	goto	l1801
  4580   00358C                     l1797:
  4581   00358C  0459               	decf	handleKeypress@mode^(0+1280),w,c
  4582   00358E  A4D8               	btfss	status,2,c
  4583   003590  EFCC  F01A         	goto	u1511
  4584   003594  EFCE  F01A         	goto	u1510
  4585   003598                     u1511:
  4586   003598  EFD8  F01A         	goto	l160
  4587   00359C                     u1510:
  4588   00359C  C554  F5C4         	movff	handleKeypress@input_value,_offPulseTime
  4589   0035A0  C555  F5C5         	movff	handleKeypress@input_value+1,_offPulseTime+1
  4590   0035A4  C556  F5C6         	movff	handleKeypress@input_value+2,_offPulseTime+2
  4591   0035A8  C557  F5C7         	movff	handleKeypress@input_value+3,_offPulseTime+3
  4592   0035AC  EFE0  F01A         	goto	l1801
  4593   0035B0                     l160:
  4594   0035B0  C554  F5C0         	movff	handleKeypress@input_value,_timerDuration
  4595   0035B4  C555  F5C1         	movff	handleKeypress@input_value+1,_timerDuration+1
  4596   0035B8  C556  F5C2         	movff	handleKeypress@input_value+2,_timerDuration+2
  4597   0035BC  C557  F5C3         	movff	handleKeypress@input_value+3,_timerDuration+3
  4598   0035C0                     l1801:
  4599                           
  4600                           ;main.c: 315:         input_value = 0;
  4601   0035C0  0E00               	movlw	0
  4602   0035C2  6E54               	movwf	handleKeypress@input_value^(0+1280),c
  4603   0035C4  0E00               	movlw	0
  4604   0035C6  6E55               	movwf	(handleKeypress@input_value+1)^(0+1280),c
  4605   0035C8  0E00               	movlw	0
  4606   0035CA  6E56               	movwf	(handleKeypress@input_value+2)^(0+1280),c
  4607   0035CC  0E00               	movlw	0
  4608   0035CE  6E57               	movwf	(handleKeypress@input_value+3)^(0+1280),c
  4609   0035D0                     l162:
  4610   0035D0  0012               	return		;funcret
  4611   0035D2                     __end_of_handleKeypress:
  4612                           	callstack 0
  4613                           
  4614 ;; *************** function ___lmul *****************
  4615 ;; Defined at:
  4616 ;;		line 15 in file "C:\Program Files\Microchip\xc8\v3.00\pic\sources\c99\common\Umul32.c"
  4617 ;; Parameters:    Size  Location     Type
  4618 ;;  multiplier      4    0[COMRAM] unsigned long 
  4619 ;;  multiplicand    4    4[COMRAM] unsigned long 
  4620 ;; Auto vars:     Size  Location     Type
  4621 ;;  product         4    8[COMRAM] unsigned long 
  4622 ;; Return value:  Size  Location     Type
  4623 ;;                  4    0[COMRAM] unsigned long 
  4624 ;; Registers used:
  4625 ;;		wreg, status,2, status,0
  4626 ;; Tracked objects:
  4627 ;;		On entry : 0/0
  4628 ;;		On exit  : 0/0
  4629 ;;		Unchanged: 0/0
  4630 ;; Data sizes:     COMRAM   BANK5   BANK6   BANK7   BANK8   BANK9  BANK10  BANK11  BANK12  BANK13  BANK14  BANK15  BANK1
      +6  BANK17  BANK18  BANK19  BANK20  BANK21  BANK22  BANK23  BANK24  BANK25  BANK26  BANK27  BANK28  BANK29  BANK30  BANK3
      +1  BANK32  BANK33  BANK34  BANK35  BANK36
  4631 ;;      Params:         8       0       0       0       0       0       0       0       0       0       0       0       
      +0       0       0       0       0       0       0       0       0       0       0       0       0       0       0       
      +0       0       0       0       0       0
  4632 ;;      Locals:         4       0       0       0       0       0       0       0       0       0       0       0       
      +0       0       0       0       0       0       0       0       0       0       0       0       0       0       0       
      +0       0       0       0       0       0
  4633 ;;      Temps:          0       0       0       0       0       0       0       0       0       0       0       0       
      +0       0       0       0       0       0       0       0       0       0       0       0       0       0       0       
      +0       0       0       0       0       0
  4634 ;;      Totals:        12       0       0       0       0       0       0       0       0       0       0       0       
      +0       0       0       0       0       0       0       0       0       0       0       0       0       0       0       
      +0       0       0       0       0       0
  4635 ;;Total ram usage:       12 bytes
  4636 ;; Hardware stack levels used: 1
  4637 ;; Hardware stack levels required when called: 1
  4638 ;; This function calls:
  4639 ;;		Nothing
  4640 ;; This function is called by:
  4641 ;;		_handleKeypress
  4642 ;; This function uses a non-reentrant model
  4643 ;;
  4644                           
  4645                           	psect	text17
  4646   003D1E                     __ptext17:
  4647                           	callstack 0
  4648   003D1E                     ___lmul:
  4649                           	callstack 124
  4650   003D1E  0E00               	movlw	0
  4651   003D20  6E09               	movwf	___lmul@product^(0+1280),c
  4652   003D22  0E00               	movlw	0
  4653   003D24  6E0A               	movwf	(___lmul@product+1)^(0+1280),c
  4654   003D26  0E00               	movlw	0
  4655   003D28  6E0B               	movwf	(___lmul@product+2)^(0+1280),c
  4656   003D2A  0E00               	movlw	0
  4657   003D2C  6E0C               	movwf	(___lmul@product+3)^(0+1280),c
  4658   003D2E                     l1605:
  4659   003D2E  A001               	btfss	___lmul@multiplier^(0+1280),0,c
  4660   003D30  EF9C  F01E         	goto	u1111
  4661   003D34  EF9E  F01E         	goto	u1110
  4662   003D38                     u1111:
  4663   003D38  EFA6  F01E         	goto	l1609
  4664   003D3C                     u1110:
  4665   003D3C  5005               	movf	___lmul@multiplicand^(0+1280),w,c
  4666   003D3E  2609               	addwf	___lmul@product^(0+1280),f,c
  4667   003D40  5006               	movf	(___lmul@multiplicand+1)^(0+1280),w,c
  4668   003D42  220A               	addwfc	(___lmul@product+1)^(0+1280),f,c
  4669   003D44  5007               	movf	(___lmul@multiplicand+2)^(0+1280),w,c
  4670   003D46  220B               	addwfc	(___lmul@product+2)^(0+1280),f,c
  4671   003D48  5008               	movf	(___lmul@multiplicand+3)^(0+1280),w,c
  4672   003D4A  220C               	addwfc	(___lmul@product+3)^(0+1280),f,c
  4673   003D4C                     l1609:
  4674   003D4C  90D8               	bcf	status,0,c
  4675   003D4E  3605               	rlcf	___lmul@multiplicand^(0+1280),f,c
  4676   003D50  3606               	rlcf	(___lmul@multiplicand+1)^(0+1280),f,c
  4677   003D52  3607               	rlcf	(___lmul@multiplicand+2)^(0+1280),f,c
  4678   003D54  3608               	rlcf	(___lmul@multiplicand+3)^(0+1280),f,c
  4679   003D56  90D8               	bcf	status,0,c
  4680   003D58  3204               	rrcf	(___lmul@multiplier+3)^(0+1280),f,c
  4681   003D5A  3203               	rrcf	(___lmul@multiplier+2)^(0+1280),f,c
  4682   003D5C  3202               	rrcf	(___lmul@multiplier+1)^(0+1280),f,c
  4683   003D5E  3201               	rrcf	___lmul@multiplier^(0+1280),f,c
  4684   003D60  5001               	movf	___lmul@multiplier^(0+1280),w,c
  4685   003D62  1002               	iorwf	(___lmul@multiplier+1)^(0+1280),w,c
  4686   003D64  1003               	iorwf	(___lmul@multiplier+2)^(0+1280),w,c
  4687   003D66  1004               	iorwf	(___lmul@multiplier+3)^(0+1280),w,c
  4688   003D68  A4D8               	btfss	status,2,c
  4689   003D6A  EFB9  F01E         	goto	u1121
  4690   003D6E  EFBB  F01E         	goto	u1120
  4691   003D72                     u1121:
  4692   003D72  EF97  F01E         	goto	l1605
  4693   003D76                     u1120:
  4694   003D76  C509  F501         	movff	___lmul@product,?___lmul
  4695   003D7A  C50A  F502         	movff	___lmul@product+1,?___lmul+1
  4696   003D7E  C50B  F503         	movff	___lmul@product+2,?___lmul+2
  4697   003D82  C50C  F504         	movff	___lmul@product+3,?___lmul+3
  4698   003D86  0012               	return		;funcret
  4699   003D88                     __end_of___lmul:
  4700                           	callstack 0
  4701                           
  4702 ;; *************** function _isr *****************
  4703 ;; Defined at:
  4704 ;;		line 92 in file "main.c"
  4705 ;; Parameters:    Size  Location     Type
  4706 ;;		None
  4707 ;; Auto vars:     Size  Location     Type
  4708 ;;		None
  4709 ;; Return value:  Size  Location     Type
  4710 ;;                  1    wreg      void 
  4711 ;; Registers used:
  4712 ;;		wreg, status,2, status,0
  4713 ;; Tracked objects:
  4714 ;;		On entry : 0/0
  4715 ;;		On exit  : 0/0
  4716 ;;		Unchanged: 0/0
  4717 ;; Data sizes:     COMRAM   BANK5   BANK6   BANK7   BANK8   BANK9  BANK10  BANK11  BANK12  BANK13  BANK14  BANK15  BANK1
      +6  BANK17  BANK18  BANK19  BANK20  BANK21  BANK22  BANK23  BANK24  BANK25  BANK26  BANK27  BANK28  BANK29  BANK30  BANK3
      +1  BANK32  BANK33  BANK34  BANK35  BANK36
  4718 ;;      Params:         0       0       0       0       0       0       0       0       0       0       0       0       
      +0       0       0       0       0       0       0       0       0       0       0       0       0       0       0       
      +0       0       0       0       0       0
  4719 ;;      Locals:         0       0       0       0       0       0       0       0       0       0       0       0       
      +0       0       0       0       0       0       0       0       0       0       0       0       0       0       0       
      +0       0       0       0       0       0
  4720 ;;      Temps:          0       0       0       0       0       0       0       0       0       0       0       0       
      +0       0       0       0       0       0       0       0       0       0       0       0       0       0       0       
      +0       0       0       0       0       0
  4721 ;;      Totals:         0       0       0       0       0       0       0       0       0       0       0       0       
      +0       0       0       0       0       0       0       0       0       0       0       0       0       0       0       
      +0       0       0       0       0       0
  4722 ;;Total ram usage:        0 bytes
  4723 ;; Hardware stack levels used: 1
  4724 ;; This function calls:
  4725 ;;		Nothing
  4726 ;; This function is called by:
  4727 ;;		Interrupt level 2
  4728 ;; This function uses a non-reentrant model
  4729 ;;
  4730                           
  4731                           	psect	text18
  4732   0039B8                     __ptext18:
  4733                           	callstack 0
  4734   0039B8                     _isr:
  4735                           	callstack 120
  4736   0039B8                     
  4737                           ;main.c: 93:     if (PIR2 & (1 << 1)) {
  4738   0039B8  A2B0               	btfss	176,1,c	;volatile
  4739   0039BA  EFE1  F01C         	goto	i2u152_41
  4740   0039BE  EFE3  F01C         	goto	i2u152_40
  4741   0039C2                     i2u152_41:
  4742   0039C2  EF5B  F01D         	goto	i2l80
  4743   0039C6                     i2u152_40:
  4744   0039C6                     
  4745                           ;main.c: 94:         if (activePulse) {
  4746   0039C6  505B               	movf	_activePulse^(0+1280),w,c
  4747   0039C8  B4D8               	btfsc	status,2,c
  4748   0039CA  EFE9  F01C         	goto	i2u153_41
  4749   0039CE  EFEB  F01C         	goto	i2u153_40
  4750   0039D2                     i2u153_41:
  4751   0039D2  EF5A  F01D         	goto	i2l1831
  4752   0039D6                     i2u153_40:
  4753   0039D6                     
  4754                           ;main.c: 95:             static unsigned char state = 0;;main.c: 96:             static 
      +                          unsigned long counter = 0;;main.c: 98:             counter++;
  4755   0039D6  0E01               	movlw	1
  4756   0039D8  0105               	movlb	5	; () banked
  4757   0039DA  2780               	addwf	isr@counter& (0+255),f,b
  4758   0039DC  0E00               	movlw	0
  4759   0039DE  2381               	addwfc	(isr@counter+1)& (0+255),f,b
  4760   0039E0  2382               	addwfc	(isr@counter+2)& (0+255),f,b
  4761   0039E2  2383               	addwfc	(isr@counter+3)& (0+255),f,b
  4762   0039E4                     
  4763                           ; BSR set to: 5
  4764                           ;main.c: 99:             if (state == 0 && counter >= onPulseTime) {
  4765   0039E4  505A               	movf	isr@state^(0+1280),w,c
  4766   0039E6  A4D8               	btfss	status,2,c
  4767   0039E8  EFF8  F01C         	goto	i2u154_41
  4768   0039EC  EFFA  F01C         	goto	i2u154_40
  4769   0039F0                     i2u154_41:
  4770   0039F0  EF17  F01D         	goto	i2l1817
  4771   0039F4                     i2u154_40:
  4772   0039F4                     
  4773                           ; BSR set to: 5
  4774   0039F4  505C               	movf	_onPulseTime^(0+1280),w,c
  4775   0039F6  5D80               	subwf	isr@counter& (0+255),w,b
  4776   0039F8  505D               	movf	(_onPulseTime+1)^(0+1280),w,c
  4777   0039FA  5981               	subwfb	(isr@counter+1)& (0+255),w,b
  4778   0039FC  505E               	movf	(_onPulseTime+2)^(0+1280),w,c
  4779   0039FE  5982               	subwfb	(isr@counter+2)& (0+255),w,b
  4780   003A00  505F               	movf	(_onPulseTime+3)^(0+1280),w,c
  4781   003A02  5983               	subwfb	(isr@counter+3)& (0+255),w,b
  4782   003A04  A0D8               	btfss	status,0,c
  4783   003A06  EF07  F01D         	goto	i2u155_41
  4784   003A0A  EF09  F01D         	goto	i2u155_40
  4785   003A0E                     i2u155_41:
  4786   003A0E  EF17  F01D         	goto	i2l1817
  4787   003A12                     i2u155_40:
  4788   003A12                     
  4789                           ; BSR set to: 5
  4790                           ;main.c: 100:                 LATDbits.LATD3 = 0;
  4791   003A12  96C1               	bcf	193,3,c	;volatile
  4792                           
  4793                           ;main.c: 101:                 LATDbits.LATD4 = 1;
  4794   003A14  88C1               	bsf	193,4,c	;volatile
  4795   003A16                     
  4796                           ; BSR set to: 5
  4797                           ;main.c: 102:                 state = 1;
  4798   003A16  0E01               	movlw	1
  4799   003A18  6E5A               	movwf	isr@state^(0+1280),c
  4800                           
  4801                           ;main.c: 103:                 counter = 0;
  4802   003A1A  0E00               	movlw	0
  4803   003A1C  6F80               	movwf	isr@counter& (0+255),b
  4804   003A1E  0E00               	movlw	0
  4805   003A20  6F81               	movwf	(isr@counter+1)& (0+255),b
  4806   003A22  0E00               	movlw	0
  4807   003A24  6F82               	movwf	(isr@counter+2)& (0+255),b
  4808   003A26  0E00               	movlw	0
  4809   003A28  6F83               	movwf	(isr@counter+3)& (0+255),b
  4810                           
  4811                           ;main.c: 104:             } else if (state == 1 && counter >= offPulseTime) {
  4812   003A2A  EF39  F01D         	goto	i2l1825
  4813   003A2E                     i2l1817:
  4814                           
  4815                           ; BSR set to: 5
  4816   003A2E  045A               	decf	isr@state^(0+1280),w,c
  4817   003A30  A4D8               	btfss	status,2,c
  4818   003A32  EF1D  F01D         	goto	i2u156_41
  4819   003A36  EF1F  F01D         	goto	i2u156_40
  4820   003A3A                     i2u156_41:
  4821   003A3A  EF39  F01D         	goto	i2l1825
  4822   003A3E                     i2u156_40:
  4823   003A3E                     
  4824                           ; BSR set to: 5
  4825   003A3E  51C4               	movf	_offPulseTime& (0+255),w,b
  4826   003A40  5D80               	subwf	isr@counter& (0+255),w,b
  4827   003A42  51C5               	movf	(_offPulseTime+1)& (0+255),w,b
  4828   003A44  5981               	subwfb	(isr@counter+1)& (0+255),w,b
  4829   003A46  51C6               	movf	(_offPulseTime+2)& (0+255),w,b
  4830   003A48  5982               	subwfb	(isr@counter+2)& (0+255),w,b
  4831   003A4A  51C7               	movf	(_offPulseTime+3)& (0+255),w,b
  4832   003A4C  5983               	subwfb	(isr@counter+3)& (0+255),w,b
  4833   003A4E  A0D8               	btfss	status,0,c
  4834   003A50  EF2C  F01D         	goto	i2u157_41
  4835   003A54  EF2E  F01D         	goto	i2u157_40
  4836   003A58                     i2u157_41:
  4837   003A58  EF39  F01D         	goto	i2l1825
  4838   003A5C                     i2u157_40:
  4839   003A5C                     
  4840                           ; BSR set to: 5
  4841                           ;main.c: 105:                 LATDbits.LATD3 = 1;
  4842   003A5C  86C1               	bsf	193,3,c	;volatile
  4843                           
  4844                           ;main.c: 106:                 LATDbits.LATD4 = 0;
  4845   003A5E  98C1               	bcf	193,4,c	;volatile
  4846                           
  4847                           ;main.c: 107:                 state = 0;
  4848   003A60  6A5A               	clrf	isr@state^(0+1280),c
  4849   003A62                     
  4850                           ; BSR set to: 5
  4851                           ;main.c: 108:                 counter = 0;
  4852   003A62  0E00               	movlw	0
  4853   003A64  6F80               	movwf	isr@counter& (0+255),b
  4854   003A66  0E00               	movlw	0
  4855   003A68  6F81               	movwf	(isr@counter+1)& (0+255),b
  4856   003A6A  0E00               	movlw	0
  4857   003A6C  6F82               	movwf	(isr@counter+2)& (0+255),b
  4858   003A6E  0E00               	movlw	0
  4859   003A70  6F83               	movwf	(isr@counter+3)& (0+255),b
  4860   003A72                     i2l1825:
  4861                           
  4862                           ; BSR set to: 5
  4863                           ;main.c: 111:             if (countCurrent > 0) {
  4864   003A72  5184               	movf	_countCurrent& (0+255),w,b
  4865   003A74  1185               	iorwf	(_countCurrent+1)& (0+255),w,b
  4866   003A76  1186               	iorwf	(_countCurrent+2)& (0+255),w,b
  4867   003A78  1187               	iorwf	(_countCurrent+3)& (0+255),w,b
  4868   003A7A  B4D8               	btfsc	status,2,c
  4869   003A7C  EF42  F01D         	goto	i2u158_41
  4870   003A80  EF44  F01D         	goto	i2u158_40
  4871   003A84                     i2u158_41:
  4872   003A84  EF5A  F01D         	goto	i2l1831
  4873   003A88                     i2u158_40:
  4874   003A88                     
  4875                           ; BSR set to: 5
  4876                           ;main.c: 112:                 countCurrent--;
  4877   003A88  0784               	decf	_countCurrent& (0+255),f,b
  4878   003A8A  0E00               	movlw	0
  4879   003A8C  5B85               	subwfb	(_countCurrent+1)& (0+255),f,b
  4880   003A8E  5B86               	subwfb	(_countCurrent+2)& (0+255),f,b
  4881   003A90  5B87               	subwfb	(_countCurrent+3)& (0+255),f,b
  4882                           
  4883                           ;main.c: 113:                 if (countCurrent == 0) {
  4884   003A92  5184               	movf	_countCurrent& (0+255),w,b
  4885   003A94  1185               	iorwf	(_countCurrent+1)& (0+255),w,b
  4886   003A96  1186               	iorwf	(_countCurrent+2)& (0+255),w,b
  4887   003A98  1187               	iorwf	(_countCurrent+3)& (0+255),w,b
  4888   003A9A  A4D8               	btfss	status,2,c
  4889   003A9C  EF52  F01D         	goto	i2u159_41
  4890   003AA0  EF54  F01D         	goto	i2u159_40
  4891   003AA4                     i2u159_41:
  4892   003AA4  EF5A  F01D         	goto	i2l1831
  4893   003AA8                     i2u159_40:
  4894   003AA8                     
  4895                           ; BSR set to: 5
  4896                           ;main.c: 114:                     activePulse = 0;
  4897   003AA8  6A5B               	clrf	_activePulse^(0+1280),c
  4898                           
  4899                           ;main.c: 115:                     LATDbits.LATD3 = 0;
  4900   003AAA  96C1               	bcf	193,3,c	;volatile
  4901                           
  4902                           ;main.c: 116:                     LATDbits.LATD4 = 0;
  4903   003AAC  98C1               	bcf	193,4,c	;volatile
  4904                           
  4905                           ;main.c: 117:                     LATDbits.LATD2 = 0;
  4906   003AAE  94C1               	bcf	193,2,c	;volatile
  4907                           
  4908                           ;main.c: 118:                     T2CONbits.TMR2ON = 0;
  4909   003AB0  0103               	movlb	3	; () banked
  4910   003AB2  9F24               	bcf	36,7,b	;volatile
  4911   003AB4                     i2l1831:
  4912                           
  4913                           ;main.c: 122:         PIR2 &= ~(1 << 1);
  4914   003AB4  92B0               	bcf	176,1,c	;volatile
  4915   003AB6                     i2l80:
  4916   003AB6  0011               	retfie		f
  4917   003AB8                     __end_of_isr:
  4918                           	callstack 0
  4919                           
  4920                           ;
  4921                           ; H/W Interrupt Vector Table @ 0x8
  4922                           ;
  4923                           
  4924                           	psect	ivt0x8
  4925   000008                     __pivt0x8:
  4926                           	callstack 0
  4927   000008                     ivt0x8_base:
  4928                           	callstack 0
  4929                           
  4930                           ; high-priority vector
  4931   000008  EFDC  F01C         	goto	_isr
  4932   000018                     	org	16
  4933                           
  4934                           ; low-priority vector
  4935   000018  00FF               	reset	
  4936                           
  4937                           	psect	rparam
  4938   000001                     ___rparam_used  equ	1
  4939   000000                     ___param_bank   equ	0
  4940   000000                     __Lparam        equ	__Lrparam
  4941   000000                     __Hparam        equ	__Hrparam
  4942                           
  4943                           	psect	config
  4944                           
  4945                           ;Config register CONFIG1 @ 0x300000
  4946                           ;	External Oscillator Selection
  4947                           ;	FEXTOSC = OFF, Oscillator not enabled
  4948                           ;	Reset Oscillator Selection
  4949                           ;	RSTOSC = HFINTOSC_64MHZ, HFINTOSC with HFFRQ = 64 MHz and CDIV = 1:1
  4950   300000                     	org	3145728
  4951   300000  8C                 	db	140
  4952                           
  4953                           ;Config register CONFIG2 @ 0x300001
  4954                           ;	Clock out Enable bit
  4955                           ;	CLKOUTEN = OFF, CLKOUT function is disabled
  4956                           ;	PRLOCKED One-Way Set Enable bit
  4957                           ;	PR1WAY = 0x1, unprogrammed default
  4958                           ;	Clock Switch Enable bit
  4959                           ;	CSWEN = ON, Writing to NOSC and NDIV is allowed
  4960                           ;	JTAG enable bit
  4961                           ;	JTAGEN = 0x1, unprogrammed default
  4962                           ;	Fail-Safe Clock Monitor Enable bit
  4963                           ;	FCMEN = ON, Fail-Safe Clock Monitor enabled
  4964                           ;	Fail-Safe Clock Monitor -Primary XTAL Enable bit
  4965                           ;	FCMENP = 0x1, unprogrammed default
  4966                           ;	Fail-Safe Clock Monitor -Secondary XTAL Enable bit
  4967                           ;	FCMENS = 0x1, unprogrammed default
  4968   300001                     	org	3145729
  4969   300001  FF                 	db	255
  4970                           
  4971                           ;Config register CONFIG3 @ 0x300002
  4972                           ;	MCLR Enable bit
  4973                           ;	MCLRE = EXTMCLR, If LVP = 0, MCLR pin is MCLR; If LVP = 1, RE3 pin function is MCLR
  4974                           ;	Power-up timer selection bits
  4975                           ;	PWRTS = PWRT_OFF, PWRT is disabled
  4976                           ;	Multi-vector enable bit
  4977                           ;	MVECEN = OFF, Interrupt contoller does not use vector table to prioritze interrupts
  4978                           ;	IVTLOCK bit One-way set enable bit
  4979                           ;	IVT1WAY = ON, IVTLOCKED bit can be cleared and set only once
  4980                           ;	Low Power BOR Enable bit
  4981                           ;	LPBOREN = OFF, Low-Power BOR disabled
  4982                           ;	Brown-out Reset Enable bits
  4983                           ;	BOREN = SBORDIS, Brown-out Reset enabled , SBOREN bit is ignored
  4984   300002                     	org	3145730
  4985   300002  F7                 	db	247
  4986                           
  4987                           ;Config register CONFIG4 @ 0x300003
  4988                           ;	Brown-out Reset Voltage Selection bits
  4989                           ;	BORV = VBOR_1P9, Brown-out Reset Voltage (VBOR) set to 1.9V
  4990                           ;	ZCD Disable bit
  4991                           ;	ZCD = OFF, ZCD module is disabled. ZCD can be enabled by setting the ZCDSEN bit of ZCD
      +                          CON
  4992                           ;	PPSLOCK bit One-Way Set Enable bit
  4993                           ;	PPS1WAY = ON, PPSLOCKED bit can be cleared and set only once; PPS registers remain loc
      +                          ked after one clear/set cycle
  4994                           ;	Stack Full/Underflow Reset Enable bit
  4995                           ;	STVREN = ON, Stack full/underflow will cause Reset
  4996                           ;	Low Voltage Programming Enable bit
  4997                           ;	LVP = 0x1, unprogrammed default
  4998                           ;	Extended Instruction Set Enable bit
  4999                           ;	XINST = OFF, Extended Instruction Set and Indexed Addressing Mode disabled
  5000   300003                     	org	3145731
  5001   300003  FF                 	db	255
  5002                           
  5003                           ;Config register CONFIG5 @ 0x300004
  5004                           ;	WDT Period selection bits
  5005                           ;	WDTCPS = WDTCPS_31, Divider ratio 1:65536; software control of WDTPS
  5006                           ;	WDT operating mode
  5007                           ;	WDTE = OFF, WDT Disabled; SWDTEN is ignored
  5008   300004                     	org	3145732
  5009   300004  9F                 	db	159
  5010                           
  5011                           ;Config register CONFIG6 @ 0x300005
  5012                           ;	WDT Window Select bits
  5013                           ;	WDTCWS = WDTCWS_7, window always open (100%); software control; keyed access not requi
      +                          red
  5014                           ;	WDT input clock selector
  5015                           ;	WDTCCS = SC, Software Control
  5016   300005                     	org	3145733
  5017   300005  FF                 	db	255
  5018                           
  5019                           ;Config register CONFIG7 @ 0x300006
  5020                           ;	Boot Block Size selection bits
  5021                           ;	BBSIZE = 0x7, unprogrammed default
  5022                           ;	Boot Block enable bit
  5023                           ;	BBEN = 0x1, unprogrammed default
  5024                           ;	Storage Area Flash enable bit
  5025                           ;	SAFEN = 0x1, unprogrammed default
  5026                           ;	Background Debugger
  5027                           ;	DEBUG = OFF, Background Debugger disabled
  5028   300006                     	org	3145734
  5029   300006  FF                 	db	255
  5030                           tosu	equ	0x4FF
  5031                           tosh	equ	0x4FE
  5032                           tosl	equ	0x4FD
  5033                           stkptr	equ	0x4FC
  5034                           pclatu	equ	0x4FB
  5035                           pclath	equ	0x4FA
  5036                           pcl	equ	0x4F9
  5037                           tblptru	equ	0x4F8
  5038                           tblptrh	equ	0x4F7
  5039                           tblptrl	equ	0x4F6
  5040                           tablat	equ	0x4F5
  5041                           prodh	equ	0x4F4
  5042                           prodl	equ	0x4F3
  5043                           indf0	equ	0x4EF
  5044                           postinc0	equ	0x4EE
  5045                           postdec0	equ	0x4ED
  5046                           preinc0	equ	0x4EC
  5047                           plusw0	equ	0x4EB
  5048                           fsr0h	equ	0x4EA
  5049                           fsr0l	equ	0x4E9
  5050                           wreg	equ	0x4E8
  5051                           indf1	equ	0x4E7
  5052                           postinc1	equ	0x4E6
  5053                           postdec1	equ	0x4E5
  5054                           preinc1	equ	0x4E4
  5055                           plusw1	equ	0x4E3
  5056                           fsr1h	equ	0x4E2
  5057                           fsr1l	equ	0x4E1
  5058                           bsr	equ	0x4E0
  5059                           indf2	equ	0x4DF
  5060                           postinc2	equ	0x4DE
  5061                           postdec2	equ	0x4DD
  5062                           preinc2	equ	0x4DC
  5063                           plusw2	equ	0x4DB
  5064                           fsr2h	equ	0x4DA
  5065                           fsr2l	equ	0x4D9
  5066                           status	equ	0x4D8

Data Sizes:
    Strings     25
    Constant    0
    Data        32
    BSS         84
    Persistent  0
    Stack       0

Auto Spaces:
    Space          Size  Autos    Used
    COMRAM           95     83      95
    BANK5           160      0     104
    BANK6           256      0       0
    BANK7           256      0       0
    BANK8           256      0       0
    BANK9           256      0       0
    BANK10          256      0       0
    BANK11          256      0       0
    BANK12          256      0       0
    BANK13          256      0       0
    BANK14          256      0       0
    BANK15          256      0       0
    BANK16          256      0       0
    BANK17          256      0       0
    BANK18          256      0       0
    BANK19          256      0       0
    BANK20          256      0       0
    BANK21          256      0       0
    BANK22          256      0       0
    BANK23          256      0       0
    BANK24          256      0       0
    BANK25          256      0       0
    BANK26          256      0       0
    BANK27          256      0       0
    BANK28          256      0       0
    BANK29          256      0       0
    BANK30          256      0       0
    BANK31          256      0       0
    BANK32          256      0       0
    BANK33          256      0       0
    BANK34          256      0       0
    BANK35          256      0       0
    BANK36          256      0       0

Pointer List with Targets:

    f$.$buffer	PTR unsigned char  size(2) Largest target is 32
		 -> displayBuffer(BANK5[32]), 

    f$.$source	PTR const unsigned char  size(2) Largest target is 0

    fputc@fp	PTR struct _IO_FILE size(2) Largest target is 11
		 -> sprintf@f(COMRAM[11]), 

    fputc@fp$.$buffer	PTR unsigned char  size(2) Largest target is 32
		 -> displayBuffer(BANK5[32]), 

    fputc@fp$.$source	PTR const unsigned char  size(2) Largest target is 0

    lcdPrint@str	PTR const unsigned char  size(2) Largest target is 32
		 -> displayBuffer(BANK5[32]), 

    S782$buffer	PTR unsigned char  size(2) Largest target is 32
		 -> displayBuffer(BANK5[32]), 

    S782$source	PTR const unsigned char  size(2) Largest target is 0

    sp__strcpy	PTR unsigned char  size(2) Largest target is 3
		 -> updateDisplay@unit_off(COMRAM[3]), updateDisplay@unit_on(COMRAM[3]), 

    sprintf@ap	PTR void [1] size(2) Largest target is 2
		 -> ?_sprintf(COMRAM[2]), 

    sprintf@fmt	PTR const unsigned char  size(1) Largest target is 19
		 -> STR_7(CODE[19]), 

    sprintf@s	PTR unsigned char  size(2) Largest target is 32
		 -> displayBuffer(BANK5[32]), 

    strcpy@d	PTR unsigned char  size(2) Largest target is 3
		 -> updateDisplay@unit_off(COMRAM[3]), updateDisplay@unit_on(COMRAM[3]), 

    strcpy@dest	PTR unsigned char  size(2) Largest target is 3
		 -> updateDisplay@unit_off(COMRAM[3]), updateDisplay@unit_on(COMRAM[3]), 

    strcpy@src	PTR const unsigned char  size(1) Largest target is 3
		 -> STR_1(CODE[2]), STR_2(CODE[3]), STR_3(CODE[3]), STR_4(CODE[2]), 
		 -> STR_5(CODE[3]), STR_6(CODE[3]), 

    vfpfcnvrt@ap	PTR PTR void  size(2) Largest target is 2
		 -> sprintf@ap(COMRAM[2]), 

    vfpfcnvrt@cp	PTR unsigned char  size(1) Largest target is 19
		 -> STR_7(CODE[19]), 

    vfpfcnvrt@cp_859	PTR unsigned char  size(2) Largest target is 3
		 -> ?_sprintf(COMRAM[2]), updateDisplay@unit_off(COMRAM[3]), updateDisplay@unit_on(COMRAM[3]), 

    vfpfcnvrt@fmt	PTR PTR unsigned char  size(2) Largest target is 1
		 -> vfprintf@cfmt(COMRAM[1]), 

    vfpfcnvrt@fp	PTR struct _IO_FILE size(2) Largest target is 11
		 -> sprintf@f(COMRAM[11]), 

    vfprintf@ap	PTR PTR void  size(2) Largest target is 2
		 -> sprintf@ap(COMRAM[2]), 

    vfprintf@cfmt	PTR unsigned char  size(1) Largest target is 19
		 -> STR_7(CODE[19]), 

    vfprintf@fmt	PTR const unsigned char  size(1) Largest target is 19
		 -> STR_7(CODE[19]), 

    vfprintf@fp	PTR struct _IO_FILE size(2) Largest target is 11
		 -> sprintf@f(COMRAM[11]), 


Critical Paths under _main in COMRAM

    _main->_updateDisplay
    _updateDisplay->_sprintf
    _sprintf->_vfprintf
    _vfprintf->_vfpfcnvrt
    _vfpfcnvrt->___lldiv
    _lcdPrint->_lcdWriteData
    _lcdInit->_lcdWriteCmd
    _handleKeypress->___lmul

Critical Paths under _isr in COMRAM

    None.

Critical Paths under _main in BANK5

    None.

Critical Paths under _isr in BANK5

    None.

Critical Paths under _main in BANK6

    None.

Critical Paths under _isr in BANK6

    None.

Critical Paths under _main in BANK7

    None.

Critical Paths under _isr in BANK7

    None.

Critical Paths under _main in BANK8

    None.

Critical Paths under _isr in BANK8

    None.

Critical Paths under _main in BANK9

    None.

Critical Paths under _isr in BANK9

    None.

Critical Paths under _main in BANK10

    None.

Critical Paths under _isr in BANK10

    None.

Critical Paths under _main in BANK11

    None.

Critical Paths under _isr in BANK11

    None.

Critical Paths under _main in BANK12

    None.

Critical Paths under _isr in BANK12

    None.

Critical Paths under _main in BANK13

    None.

Critical Paths under _isr in BANK13

    None.

Critical Paths under _main in BANK14

    None.

Critical Paths under _isr in BANK14

    None.

Critical Paths under _main in BANK15

    None.

Critical Paths under _isr in BANK15

    None.

Critical Paths under _main in BANK16

    None.

Critical Paths under _isr in BANK16

    None.

Critical Paths under _main in BANK17

    None.

Critical Paths under _isr in BANK17

    None.

Critical Paths under _main in BANK18

    None.

Critical Paths under _isr in BANK18

    None.

Critical Paths under _main in BANK19

    None.

Critical Paths under _isr in BANK19

    None.

Critical Paths under _main in BANK20

    None.

Critical Paths under _isr in BANK20

    None.

Critical Paths under _main in BANK21

    None.

Critical Paths under _isr in BANK21

    None.

Critical Paths under _main in BANK22

    None.

Critical Paths under _isr in BANK22

    None.

Critical Paths under _main in BANK23

    None.

Critical Paths under _isr in BANK23

    None.

Critical Paths under _main in BANK24

    None.

Critical Paths under _isr in BANK24

    None.

Critical Paths under _main in BANK25

    None.

Critical Paths under _isr in BANK25

    None.

Critical Paths under _main in BANK26

    None.

Critical Paths under _isr in BANK26

    None.

Critical Paths under _main in BANK27

    None.

Critical Paths under _isr in BANK27

    None.

Critical Paths under _main in BANK28

    None.

Critical Paths under _isr in BANK28

    None.

Critical Paths under _main in BANK29

    None.

Critical Paths under _isr in BANK29

    None.

Critical Paths under _main in BANK30

    None.

Critical Paths under _isr in BANK30

    None.

Critical Paths under _main in BANK31

    None.

Critical Paths under _isr in BANK31

    None.

Critical Paths under _main in BANK32

    None.

Critical Paths under _isr in BANK32

    None.

Critical Paths under _main in BANK33

    None.

Critical Paths under _isr in BANK33

    None.

Critical Paths under _main in BANK34

    None.

Critical Paths under _isr in BANK34

    None.

Critical Paths under _main in BANK35

    None.

Critical Paths under _isr in BANK35

    None.

Critical Paths under _main in BANK36

    None.

Critical Paths under _isr in BANK36

    None.

Call Graph Tables:

 ---------------------------------------------------------------------------------
 (Depth) Function   	        Calls       Base Space   Used Autos Params    Refs
 ---------------------------------------------------------------------------------
 (0) _main                                                 3     3      0    3830
                                             80 COMRAM     3     3      0
                     _handleKeypress
                         _keypadScan
                            _lcdInit
                         _systemInit
                      _updateDisplay
 ---------------------------------------------------------------------------------
 (1) _updateDisplay                                       14    14      0    2868
                                             66 COMRAM    14    14      0
                            ___lldiv
                           _lcdPrint
                        _lcdWriteCmd
                            _sprintf
                             _strcpy
 ---------------------------------------------------------------------------------
 (2) _strcpy                                               6     3      3      85
                                              0 COMRAM     6     3      3
 ---------------------------------------------------------------------------------
 (2) _sprintf                                             30    15     15    1691
                                             38 COMRAM    28    13     15
                           _vfprintf
 ---------------------------------------------------------------------------------
 (3) _vfprintf                                             6     1      5    1486
                                             32 COMRAM     6     1      5
                          _vfpfcnvrt
 ---------------------------------------------------------------------------------
 (4) _vfpfcnvrt                                           19    13      6    1353
                                             13 COMRAM    19    13      6
                            ___lldiv
                            ___llmod
                              _fputc
 ---------------------------------------------------------------------------------
 (5) _fputc                                                9     5      4     232
                                              0 COMRAM     9     5      4
                              _putch
 ---------------------------------------------------------------------------------
 (6) _putch                                                1     1      0       0
 ---------------------------------------------------------------------------------
 (5) ___llmod                                              9     1      8     161
                                              0 COMRAM     9     1      8
 ---------------------------------------------------------------------------------
 (5) ___lldiv                                             13     5      8     172
                                              0 COMRAM    13     5      8
 ---------------------------------------------------------------------------------
 (2) _lcdPrint                                             2     0      2     278
                                              3 COMRAM     2     0      2
                       _lcdWriteData
 ---------------------------------------------------------------------------------
 (3) _lcdWriteData                                         3     3      0     232
                                              0 COMRAM     3     3      0
 ---------------------------------------------------------------------------------
 (1) _systemInit                                           0     0      0       0
 ---------------------------------------------------------------------------------
 (1) _lcdInit                                              2     2      0     232
                                              3 COMRAM     2     2      0
                        _lcdWriteCmd
 ---------------------------------------------------------------------------------
 (2) _lcdWriteCmd                                          3     3      0     232
                                              0 COMRAM     3     3      0
 ---------------------------------------------------------------------------------
 (1) _keypadScan                                          25    25      0     359
                                              0 COMRAM    25    25      0
 ---------------------------------------------------------------------------------
 (1) _handleKeypress                                       3     3      0     326
                                             12 COMRAM     3     3      0
                             ___lmul
 ---------------------------------------------------------------------------------
 (2) ___lmul                                              12     4      8      94
                                              0 COMRAM    12     4      8
 ---------------------------------------------------------------------------------
 Estimated maximum stack depth 6
 ---------------------------------------------------------------------------------
 (Depth) Function   	        Calls       Base Space   Used Autos Params    Refs
 ---------------------------------------------------------------------------------
 (7) _isr                                                  0     0      0       0
 ---------------------------------------------------------------------------------
 Estimated maximum stack depth 7
 ---------------------------------------------------------------------------------

 Call Graph Graphs:

 _main (ROOT)
   _handleKeypress
     ___lmul
   _keypadScan
   _lcdInit
     _lcdWriteCmd
   _systemInit
   _updateDisplay
     ___lldiv
     _lcdPrint
       _lcdWriteData
     _lcdWriteCmd
     _sprintf
       _vfprintf
         _vfpfcnvrt
           ___lldiv
           ___llmod
           _fputc
             _putch
     _strcpy

 _isr (ROOT)

Address spaces:
Name               Size   Autos  Total    Usage
BIGRAM            8191      0       0      0.0%
BITBIGSFR_1       2304      0       0      0.0%
BITBIGSFRllh       630      0       0      0.0%
BITBIGSFRlh        426      0       0      0.0%
BITBANK36          256      0       0      0.0%
BANK36             256      0       0      0.0%
BITBANK35          256      0       0      0.0%
BANK35             256      0       0      0.0%
BITBANK34          256      0       0      0.0%
BANK34             256      0       0      0.0%
BITBANK33          256      0       0      0.0%
BANK33             256      0       0      0.0%
BITBANK32          256      0       0      0.0%
BANK32             256      0       0      0.0%
BITBANK31          256      0       0      0.0%
BANK31             256      0       0      0.0%
BITBANK30          256      0       0      0.0%
BANK30             256      0       0      0.0%
BITBANK29          256      0       0      0.0%
BANK29             256      0       0      0.0%
BITBANK28          256      0       0      0.0%
BANK28             256      0       0      0.0%
BITBANK27          256      0       0      0.0%
BANK27             256      0       0      0.0%
BITBANK26          256      0       0      0.0%
BANK26             256      0       0      0.0%
BITBANK25          256      0       0      0.0%
BANK25             256      0       0      0.0%
BITBANK24          256      0       0      0.0%
BANK24             256      0       0      0.0%
BITBANK23          256      0       0      0.0%
BANK23             256      0       0      0.0%
BITBANK22          256      0       0      0.0%
BANK22             256      0       0      0.0%
BITBANK21          256      0       0      0.0%
BANK21             256      0       0      0.0%
BITBANK20          256      0       0      0.0%
BANK20             256      0       0      0.0%
BITBANK19          256      0       0      0.0%
BANK19             256      0       0      0.0%
BITBANK18          256      0       0      0.0%
BANK18             256      0       0      0.0%
BITBANK17          256      0       0      0.0%
BANK17             256      0       0      0.0%
BITBANK16          256      0       0      0.0%
BANK16             256      0       0      0.0%
BITBANK15          256      0       0      0.0%
BANK15             256      0       0      0.0%
BITBANK14          256      0       0      0.0%
BANK14             256      0       0      0.0%
BITBANK13          256      0       0      0.0%
BANK13             256      0       0      0.0%
BITBANK12          256      0       0      0.0%
BANK12             256      0       0      0.0%
BITBANK11          256      0       0      0.0%
BANK11             256      0       0      0.0%
BITBANK10          256      0       0      0.0%
BANK10             256      0       0      0.0%
BITBANK9           256      0       0      0.0%
BANK9              256      0       0      0.0%
BITBANK8           256      0       0      0.0%
BANK8              256      0       0      0.0%
BITBANK7           256      0       0      0.0%
BANK7              256      0       0      0.0%
BITBANK6           256      0       0      0.0%
BANK6              256      0       0      0.0%
BITBIGSFRlll       173      0       0      0.0%
BITBANK5           160      0       0      0.0%
BANK5              160      0     104     65.0%
BITCOMRAM           95      0       0      0.0%
COMRAM              95     83      95    100.0%
BITBIGSFRh          48      0       0      0.0%
STACK                0      0       0      0.0%
DATA                 0      0     199      0.0%


Microchip Technology PIC18 Macro Assembler V3.00 build 20241204225717 
Symbol Table                                                                                   Sun Jul 06 15:37:28 2025

       __end_of_systemInit 3F60                         l92 3F5E                         l95 3DEE  
                       l98 39B6                        l101 38AC                        l112 362C  
                      l113 37A2                        l122 3694                        l114 362E  
                      l210 3C24                        l107 3F36                        l203 3C14  
                      l135 373C                        l160 35B0                        l145 3422  
                      l146 3432                        l162 35D0                        l173 33DE  
                      l187 3D76                        l603 3CAC                        l188 3D86  
                      l900 31B6                        l914 3E84                        l596 3C9C  
                      l926 3B80                        l854 3ECC                        l943 3F06  
                      l937 3F80                        l883 2E88                        l884 3042  
                      _PR2 0323                        u810 3BA8                        u811 3BA4  
                      u820 3BCA                        u900 3B3A                        u821 3BC6  
                      u901 3B36                        u830 3BF2                        u910 2E40  
                      u831 3BEE                        u911 2E3C                        u840 3C3C  
                      u920 2EC0                        u841 3C38                        u921 2EBC  
                      u850 3C5E                        u930 2FDC                        u851 3C5A  
                      u931 2FD8                        u860 3C7C                        u940 2FEC  
                      u861 3C78                        u941 2FE8                        u870 3ACA  
                      u950 3026                        u871 3AC6                        u951 3022  
                      u880 3ADC                        u960 3068                        u881 3AD8  
                      u961 3064                        u890 3B04                        u970 309E  
                      u891 3B00                        u971 309A                        u980 30CA  
                      u981 30C6                        u990 30F6                        u991 30F2  
                      _isr 39B8                        prod 04F3                        wreg 04E8  
           ??_lcdWriteData 0501                       l1161 3F4E                       l1153 3F38  
                     l1163 3F50                       l1155 3F3E                       l1411 3BB0  
                     l1165 3F58                       l1157 3F40                       l1421 3C02  
                     l1413 3BBC                       l1405 3B82                       l1501 3012  
                     l1167 3F5A                       l1159 3F4A                       l1423 3C04  
                     l1415 3BCA                       l1407 3B92                       l1431 3C44  
                     l1511 3068                       l1503 3014                       l1169 3F5C  
                     l1425 3C0E                       l1417 3BD4                       l1409 3BA8  
                     l1441 3C96                       l1433 3C50                       l1521 30F6  
                     l1513 3072                       l1611 3D56                       l1603 3D1E  
                     l1419 3BF2                       l1435 3C5E                       l1427 3C26  
                     l1451 3B04                       l1443 3AB8                       l1531 3160  
                     l1515 307A                       l1507 302A                       l1605 3D2E  
                     l1701 367C                       l1621 3DCA                       l1613 3D88  
                     l1437 3C7C                       l1429 3C3C                       l1453 3B3A  
                     l1445 3ACA                       l1533 3164                       l1517 309E  
                     l1525 3106                       l1509 3044                       l1461 2E4A  
                     l1607 3D3C                       l1703 368E                       l1631 3DE8  
                     l1623 3DD0                       l1615 3DA0                       l1551 3894  
                     l1439 3C8C                       l1447 3ADC                       l1527 3116  
                     l1535 3180                       l1519 30CA                       l1471 2E80  
                     l1463 2E58                       l1609 3D4C                       l1801 35C0  
                     l1721 36DC                       l1713 36A0                       l1705 3696  
                     l1625 3DD6                       l1617 3DA6                       l1553 389C  
                     l1545 37A6                       l1449 3AE6                       l1529 3142  
                     l1481 2EFC                       l1465 2E5C                       l1457 2E1C  
                     l1561 3E60                       l1641 323E                       l1633 31B8  
                     l1731 374A                       l1723 36EE                       l1715 36B0  
                     l1707 369E                       l1571 399C                       l1627 3DDC  
                     l1619 3DBC                       l1555 389E                       l1547 37A8  
                     l1491 2F5A                       l1475 2E8E                       l1467 2E68  
                     l1459 2E40                       l1539 318E                       l1563 3E7C  
                     l1651 32D0                       l1643 325A                       l1635 31D8  
                     l1733 3758                       l1741 377A                       l1725 36FC  
                     l1717 36BE                       l1573 399E                       l1629 3DE2  
                     l1549 3892                       l1581 3F0C                       l1493 2F92  
                     l1485 2F30                       l1477 2EA4                       l1469 2E7A  
                     l1557 3E3C                       l1661 337C                       l1653 3304  
                     l1645 328E                       l1637 31F6                       l1743 377C  
                     l1735 3766                       l1727 370E                       l1719 36CE  
                     l1671 35E4                       l1575 39A6                       l1567 38B0  
                     l1583 3F1A                       l1495 2FC6                       l1487 2F46  
                     l1479 2EC4                       l1559 3E44                       l1591 3E86  
                     l1663 338C                       l1655 3318                       l1647 32A2  
                     l1639 322A                       l1761 3418                       l1753 33E2  
                     l1745 378C                       l1737 3774                       l1729 371C  
                     l1681 3626                       l1673 35EE                       l1577 39A8  
                     l1569 38B2                       l1585 3F1E                       l1497 2FDC  
                     l1489 2F56                       l1593 3E96                       l1665 33CC  
                     l1657 3334                       l1649 32B2                       l1841 3E12  
                     l1833 3DF0                       l1771 3470                       l1763 341A  
                     l1755 33F4                       l1747 378E                       l1691 3648  
                     l1675 35FC                       l1579 3F08                       l1499 2FF0  
                     l1595 3E9E                       l1587 3ECE                       l1667 33D2  
                     l1659 3368                       l1843 3E18                       l1835 3DF8  
                     l1781 34B2                       l1773 3474                       l1757 3404  
                     l1765 3436                       l1693 364E                       l1677 360A  
                     l1669 35D2                       l1597 3EA6                       l1589 3ED6  
                     l1845 3E1C                       l1837 3DFC                       l1791 354A  
                     l1783 34C2                       l1775 3488                       l1767 3448  
                     l1759 3408                       l1695 365E                       l1679 3618  
                     l1599 3EBE                       l1839 3E02                       l1793 3568  
                     l1785 34D2                       l1777 349A                       l1769 345E  
                     l1697 3664                       l1689 3638                       l1795 3578  
                     l1787 351E                       l1779 349E                       l1699 3676  
                     l1797 358C                       l1789 3530                       l1799 359C  
                     ?_isr 0501                       STR_1 2E12                       STR_2 2E14  
                     STR_3 2E17                       STR_4 2E12                       STR_5 2E14  
                     STR_6 2E17                       STR_7 2E01                       u1000 3116  
                     u1001 3112                       u1010 317C                       u1011 3178  
                     u1100 3F06                       u1101 3F02                       u1110 3D3C  
                     u1111 3D38                       u1120 3D76                       u1200 3618  
                     u1121 3D72                       u1201 3614                       u1025 383E  
                     u1210 3626                       u1050 3E7C                       u1130 31F6  
                     u1211 3622                       u1035 3862                       u1051 3E78  
                     u1131 31F2                       u1300 36EE                       u1220 3648  
                     u1140 325A                       u1301 36EA                       u1221 3644  
                     u1045 3882                       u1141 3256                       u1310 36FC  
                     u1230 365E                       u1150 32D0                       u1311 36F8  
                     u1231 365A                       u1151 32CC                       u1400 33F4  
                     u1320 370E                       u1240 3676                       u1160 3334  
                     u1401 33F0                       u1321 370A                       u1241 3672  
                     u1065 3948                       u1161 3330                       u1410 3404  
                     u1330 371C                       u1250 368E                       u1090 3F36  
                     u1411 3400                       u1331 3718                       u1251 368A  
                     u1171 35DC                       u1075 396C                       u1091 3F32  
                     u1500 3578                       u1420 3448                       u1340 374A  
                     u1260 36B0                       u1180 35FC                       u1501 3574  
                     u1421 3444                       u1341 3746                       u1261 36AC  
                     u1181 35F8                       u1085 398C                       u1510 359C  
                     u1430 3470                       u1350 3758                       u1270 36BE  
                     u1190 360A                       u1511 3598                       u1431 346C  
                     u1351 3754                       u1271 36BA                       u1191 3606  
                     u1440 349A                       u1360 3766                       u1280 36CE  
                     u1600 3E12                       u1441 3496                       u1361 3762  
                     u1281 36CA                       u1601 3E0E                       u1450 34C2  
                     u1370 3774                       u1290 36DC                       u1451 34BE  
                     u1371 3770                       u1291 36D8                       u1460 34D2  
                     u1380 378C                       u1461 34CE                       u1381 3788  
                     u1470 3530                       u1390 379E                       u1471 352C  
                     u1391 379A                       u1480 354A                       u1481 3546  
                     u1617 3E26                       u1490 3568                       u1491 3564  
                     u1627 3896                       u1637 38A0                       u1647 3D92  
                     _PIE2 04A0                       u1657 3DAC                       u1667 3DBE  
                     u1677 39A0                       u1687 39AA                       u1697 3698  
                     _PIR2 04B0                       i2l80 3AB6             ?_updateDisplay 0501  
                     _dbuf 0560                       _main 3DF0                       _prec 058A  
                     fsr1h 04E2                       fsr2h 04DA                       indf2 04DF  
                     fsr1l 04E1                       fsr2l 04D9                       prodl 04F3  
                     start 001A               ___param_bank 0000             lcdWriteCmd@cmd 0503  
                    ??_isr 0501                      ?_main 0501            __end_of___lldiv 3C26  
          __end_of___llmod 3CAE                      _T2CON 0324               vfpfcnvrt@fmt 0510  
                    _TRISA 04C6                      _TRISB 04C7                      _TRISC 04C8  
                    _TRISD 04C9        ___lmul@multiplicand 0505            __end_of_lcdInit 3DF0  
                    _flags 0558                      _fputc 3AB8                      _width 0588  
                    _putch 3F80                      tablat 04F5                      plusw1 04E3  
                    plusw2 04DB                      status 04D8            __end_of_sprintf 3ECE  
          __initialization 3CAE               __end_of_main 3E3C                     ??_main 0551  
            __activetblptr 0002            ??_updateDisplay 0543                     ?_fputc 0501  
         ___llmod@dividend 0501                     _ANSELA 0400                     ?_putch 0501  
                   _ANSELB 0408                     i2l1811 39F4                     i2l1803 39B8  
                   i2l1821 3A5C                     i2l1813 3A12                     i2l1805 39C6  
                   i2l1823 3A62                     i2l1815 3A16                     i2l1807 39D6  
                   i2l1831 3AB4                     i2l1825 3A72                     i2l1817 3A2E  
                   i2l1809 39E4                     i2l1827 3A88                     i2l1819 3A3E  
                   i2l1829 3AA8              vfpfcnvrt@done 0518           __end_of_lcdPrint 3F38  
             vfprintf@cfmt 0526                     ___lmul 3D1E       __end_of_lcdWriteData 38AE  
                ??___lldiv 0509                  ??___llmod 0509                     clear_0 3CF4  
                   clear_1 3D00                     isa$std 0001                  ??_lcdInit 0504  
                   _strcpy 3ECE                     fputc@c 0501               __pdataCOMRAM 055C  
             __mediumconst 2E00                     tblptrh 04F7                     tblptrl 04F6  
                   tblptru 04F8                     putch@c 0501           __end_of_vfprintf 3E86  
                ??_sprintf 0536                 __accesstop 0560    __end_of__initialization 3D14  
            ___rparam_used 0001             __pcstackCOMRAM 0501               __pidataBANK5 3F60  
            __end_of_fputc 3B82              __end_of_putch 3F82           lcdWriteData@data 0503  
                  ??_fputc 0505                    ??_putch 0501                 __pbssBANK5 0560  
                  IVTBASEH 045E                    IVTBASEL 045D                    IVTBASEU 045F  
                  ?___lmul 0501             ___lmul@product 0509                    ?_strcpy 0501  
                  _OSCCON1 00AD                  ?_lcdPrint 0504  handleKeypress@input_value 0554  
     updateDisplay@on_time 0549                    __Hparam 0000                    __Lparam 0000  
     updateDisplay@unit_on 0543                    ___lldiv 3B82                    ___llmod 3C26  
                ?_vfprintf 0521               __psmallconst 2E00                    __pcinit 3CAE  
                  __ramtop 2E00                 _keypadScan 35D2                    _lcdInit 3D88  
                  __ptext0 3DF0                    __ptext1 31B8                    __ptext2 3ECE  
                  __ptext3 3E86                    __ptext4 3E3C                    __ptext5 2E1C  
                  __ptext6 3AB8                    __ptext7 3F80                    __ptext8 3C26  
                  __ptext9 3B82                  _T2CONbits 0324                 ??_lcdPrint 0506  
                  _sprintf 3E86                    main@key 0553               _lcdWriteData 37A4  
     end_of_initialization 3D14                    fputc@fp 0503              __Lmediumconst 0000  
          ___lldiv@divisor 0505            ___lldiv@counter 050D          __end_of_vfpfcnvrt 31B8  
                  postdec1 04E5                    postdec2 04DD                    postinc0 04EE  
                  postinc1 04E6                    postinc2 04DE           vfpfcnvrt@convarg 051B  
               ??_vfprintf 0526                    strcpy@d 0505                  _PORTBbits 04CF  
    __end_of_updateDisplay 33E0              ??_lcdWriteCmd 0501             _handleKeypress 33E0  
       handleKeypress@mode 0559           keypadScan@F23798 05AC             __end_of___lmul 3D88  
              vfpfcnvrt@ap 0512                vfpfcnvrt@cp 051F                vfpfcnvrt@fp 050E  
            __pidataCOMRAM 3F7C                ?_keypadScan 0501               _countCurrent 0584  
           __end_of_strcpy 3F08        start_initialization 3CAE                 _systemInit 3F38  
              __end_of_isr 3AB8                 ivt0x8_base 0008     __end_of_handleKeypress 35D2  
          ___llmod@divisor 0505            ___llmod@counter 0509                 isr@counter 0580  
             _offPulseTime 05C4           keypadScan@result 0517                vfprintf@fmt 0523  
      __end_of_lcdWriteCmd 39B8                   ??___lmul 0509                __pdataBANK5 05AC  
                 ??_strcpy 0504                __pbssCOMRAM 0554                _activePulse 055B  
          ?_handleKeypress 0501                   ?___lldiv 0501                   ?___llmod 0501  
                 ?_lcdInit 0501                __smallconst 2E00                ?_systemInit 0501  
                 ?_sprintf 0527                   _LATBbits 04BF                   _LATCbits 04C0  
              _lcdWriteCmd 38AE                   _LATDbits 04C1            vfpfcnvrt@cp_859 0519  
                 i2u152_40 39C6                   i2u152_41 39C2                   i2u153_40 39D6  
                 i2u153_41 39D2                   i2u154_40 39F4                   i2u154_41 39F0  
                 i2u155_40 3A12                   i2u155_41 3A0E                   i2u156_40 3A3E  
                 i2u156_41 3A3A                   i2u157_40 3A5C                   i2u157_41 3A58  
                 i2u158_40 3A88                   i2u158_41 3A84                   i2u159_40 3AA8  
                 i2u159_41 3AA4                  _vfpfcnvrt 2E1C          handleKeypress@key 050F  
               vfpfcnvrt@c 0520                _INTCON0bits 04D6          ___lmul@multiplier 0501  
                copy_data0 3CC2                  copy_data1 3CE2      updateDisplay@off_time 054D  
                 __Hrparam 0000                 vfprintf@ap 0524                   __Lrparam 0000  
               vfprintf@fp 0521      updateDisplay@unit_off 0546                 ?_vfpfcnvrt 050E  
             ??_keypadScan 0501                 sprintf@fmt 0529                   __pivt0x8 0008  
                 __ptext10 3F08                   __ptext11 37A4                   __ptext12 3F38  
                 __ptext13 3D88                   __ptext14 38AE                   __ptext15 35D2  
                 __ptext16 33E0                   __ptext17 3D1E                   __ptext18 39B8  
                 _lcdPrint 3F08                _onPulseTime 055C              _timerDuration 05C0  
               strcpy@dest 0501         __end_of_keypadScan 37A4                   isa$xinst 0000  
                 _vfprintf 3E3C             keypadScan@keys 0503                   isr@state 055A  
         ??_handleKeypress 050D                   intlevel2 0000                  sprintf@ap 0536  
         ___lldiv@dividend 0501                  strcpy@src 0503                ??_vfpfcnvrt 0514  
            keypadScan@col 0518              keypadScan@row 0519                   sprintf@f 0538  
                 sprintf@s 0527           ___lldiv@quotient 0509               ??_systemInit 0501  
            _displayBuffer 058C              ?_lcdWriteData 0501                lcdPrint@str 0504  
            _updateDisplay 31B8               ?_lcdWriteCmd 0501  
